---
triple:          'arm64-apple-darwin'
binary-path:     '/Users/hadley/Developments/data_structure_and_algorithm/hashtable/src/381-insert-delete-getrandom-duplicates-allowed'
relocations:
  - { offsetInCU: 0xD5C2, offset: 0xD5C2, size: 0x8, addend: 0x0, symName: __ZNSt3__124__put_character_sequenceB8ne180100IcNS_11char_traitsIcEEEERNS_13basic_ostreamIT_T0_EES7_PKS4_m, symObjAddr: 0xA384, symBinAddr: 0x10000D49C, symSize: 0x1F4 }
  - { offsetInCU: 0xE432, offset: 0xE432, size: 0x8, addend: 0x0, symName: __ZNSt3__17advanceB8ne180100INS_21__tree_const_iteratorIiPNS_11__tree_nodeIiPvEElEEllvEEvRT_T0_, symObjAddr: 0xBA54, symBinAddr: 0x10000EB6C, symSize: 0x38 }
  - { offsetInCU: 0xEC4E, offset: 0xEC4E, size: 0x8, addend: 0x0, symName: __ZNSt3__16__math4ceilB8ne180100Ef, symObjAddr: 0x433C, symBinAddr: 0x100007454, symSize: 0x18 }
  - { offsetInCU: 0xF203, offset: 0xF203, size: 0x8, addend: 0x0, symName: __ZNSt3__14endlB8ne180100IcNS_11char_traitsIcEEEERNS_13basic_ostreamIT_T0_EES7_, symObjAddr: 0x88C, symBinAddr: 0x1000039A4, symSize: 0x58 }
  - { offsetInCU: 0xF243, offset: 0xF243, size: 0x8, addend: 0x0, symName: __ZNSt3__130__libcpp_is_constant_evaluatedB8ne180100Ev, symObjAddr: 0x14E0, symBinAddr: 0x1000045F8, symSize: 0xC }
  - { offsetInCU: 0xF260, offset: 0xF260, size: 0x8, addend: 0x0, symName: __ZNSt3__119__libcpp_deallocateB8ne180100EPvmm, symObjAddr: 0x14EC, symBinAddr: 0x100004604, symSize: 0x30 }
  - { offsetInCU: 0xF2A8, offset: 0xF2A8, size: 0x8, addend: 0x0, symName: __ZNSt3__127__do_deallocate_handle_sizeB8ne180100IJEEEvPvmDpT_, symObjAddr: 0x151C, symBinAddr: 0x100004634, symSize: 0x28 }
  - { offsetInCU: 0xF2E6, offset: 0xF2E6, size: 0x8, addend: 0x0, symName: __ZNSt3__124__libcpp_operator_deleteB8ne180100IJPvEEEvDpT_, symObjAddr: 0x1544, symBinAddr: 0x10000465C, symSize: 0x24 }
  - { offsetInCU: 0xF31B, offset: 0xF31B, size: 0x8, addend: 0x0, symName: __ZNSt3__112__destroy_atB8ne180100INS_11__hash_nodeINS_17__hash_value_typeIiiEEPvEELi0EEEvPT_, symObjAddr: 0x2144, symBinAddr: 0x10000525C, symSize: 0x24 }
  - { offsetInCU: 0xF385, offset: 0xF385, size: 0x8, addend: 0x0, symName: __ZNSt3__112__destroy_atB8ne180100INS_4pairIKiiEELi0EEEvPT_, symObjAddr: 0x21E8, symBinAddr: 0x100005300, symSize: 0x10 }
  - { offsetInCU: 0xF3BC, offset: 0xF3BC, size: 0x8, addend: 0x0, symName: __ZNSt3__19__launderB8ne180100INS_17__hash_value_typeIiiEEEEPT_S4_, symObjAddr: 0x220C, symBinAddr: 0x100005324, symSize: 0x14 }
  - { offsetInCU: 0xF3F3, offset: 0xF3F3, size: 0x8, addend: 0x0, symName: __ZNSt3__112__to_addressB8ne180100IiEEPT_S2_, symObjAddr: 0x25A8, symBinAddr: 0x1000056C0, symSize: 0x14 }
  - { offsetInCU: 0xF428, offset: 0xF428, size: 0x8, addend: 0x0, symName: __ZNSt3__1neB8ne180100ERKNS_21__hash_const_iteratorIPNS_11__hash_nodeINS_17__hash_value_typeIiiEEPvEEEES9_, symObjAddr: 0x2AE0, symBinAddr: 0x100005BF8, symSize: 0x34 }
  - { offsetInCU: 0xF465, offset: 0xF465, size: 0x8, addend: 0x0, symName: __ZNSt3__1eqB8ne180100ERKNS_21__hash_const_iteratorIPNS_11__hash_nodeINS_17__hash_value_typeIiiEEPvEEEES9_, symObjAddr: 0x2CF8, symBinAddr: 0x100005E10, symSize: 0x30 }
  - { offsetInCU: 0xF4A2, offset: 0xF4A2, size: 0x8, addend: 0x0, symName: __ZNSt3__116__constrain_hashB8ne180100Emm, symObjAddr: 0x2DA8, symBinAddr: 0x100005EC0, symSize: 0x98 }
  - { offsetInCU: 0xF4DC, offset: 0xF4DC, size: 0x8, addend: 0x0, symName: __ZNSt3__1neB8ne180100ERKNS_19__hash_map_iteratorINS_15__hash_iteratorIPNS_11__hash_nodeINS_17__hash_value_typeIiiEEPvEEEEEESB_, symObjAddr: 0x3158, symBinAddr: 0x100006270, symSize: 0x30 }
  - { offsetInCU: 0xF519, offset: 0xF519, size: 0x8, addend: 0x0, symName: __ZNSt3__1neB8ne180100ERKNS_15__hash_iteratorIPNS_11__hash_nodeINS_17__hash_value_typeIiiEEPvEEEES9_, symObjAddr: 0x3818, symBinAddr: 0x100006930, symSize: 0x34 }
  - { offsetInCU: 0xF556, offset: 0xF556, size: 0x8, addend: 0x0, symName: __ZNSt3__1eqB8ne180100ERKNS_15__hash_iteratorIPNS_11__hash_nodeINS_17__hash_value_typeIiiEEPvEEEES9_, symObjAddr: 0x384C, symBinAddr: 0x100006964, symSize: 0x30 }
  - { offsetInCU: 0xF617, offset: 0xF617, size: 0x8, addend: 0x0, symName: __ZNSt3__117__libcpp_allocateB8ne180100Emm, symObjAddr: 0x3B00, symBinAddr: 0x100006C18, symSize: 0x28 }
  - { offsetInCU: 0xF654, offset: 0xF654, size: 0x8, addend: 0x0, symName: __ZNSt3__121__libcpp_operator_newB8ne180100IJmEEEPvDpT_, symObjAddr: 0x3B40, symBinAddr: 0x100006C58, symSize: 0x24 }
  - { offsetInCU: 0xF68D, offset: 0xF68D, size: 0x8, addend: 0x0, symName: __ZNSt3__13maxB8ne180100ImEERKT_S3_S3_, symObjAddr: 0x42C0, symBinAddr: 0x1000073D8, symSize: 0x2C }
  - { offsetInCU: 0xF6D0, offset: 0xF6D0, size: 0x8, addend: 0x0, symName: __ZNSt3__116__is_hash_power2B8ne180100Em, symObjAddr: 0x42EC, symBinAddr: 0x100007404, symSize: 0x50 }
  - { offsetInCU: 0xF6FC, offset: 0xF6FC, size: 0x8, addend: 0x0, symName: __ZNSt3__116__next_hash_pow2B8ne180100Em, symObjAddr: 0x47E0, symBinAddr: 0x1000078F8, symSize: 0x6C }
  - { offsetInCU: 0xF728, offset: 0xF728, size: 0x8, addend: 0x0, symName: __ZNSt3__112__libcpp_clzB8ne180100Em, symObjAddr: 0x49D0, symBinAddr: 0x100007AE8, symSize: 0x1C }
  - { offsetInCU: 0xF754, offset: 0xF754, size: 0x8, addend: 0x0, symName: __ZNSt3__13maxB8ne180100ImNS_6__lessIvvEEEERKT_S5_S5_T0_, symObjAddr: 0x49EC, symBinAddr: 0x100007B04, symSize: 0x54 }
  - { offsetInCU: 0xF7F3, offset: 0xF7F3, size: 0x8, addend: 0x0, symName: __ZNSt3__112__destroy_atB8ne180100IiLi0EEEvPT_, symObjAddr: 0x4D10, symBinAddr: 0x100007E28, symSize: 0x10 }
  - { offsetInCU: 0xF82A, offset: 0xF82A, size: 0x8, addend: 0x0, symName: __ZNSt3__112__destroy_atB8ne180100IKiLi0EEEvPT_, symObjAddr: 0x4D20, symBinAddr: 0x100007E38, symSize: 0x10 }
  - { offsetInCU: 0xF861, offset: 0xF861, size: 0x8, addend: 0x0, symName: __ZNSt3__13minB8ne180100ImEERKT_S3_S3_, symObjAddr: 0x5304, symBinAddr: 0x10000841C, symSize: 0x2C }
  - { offsetInCU: 0xFAA5, offset: 0xFAA5, size: 0x8, addend: 0x0, symName: __ZNSt3__13minB8ne180100ImNS_6__lessIvvEEEERKT_S5_S5_T0_, symObjAddr: 0x5390, symBinAddr: 0x1000084A8, symSize: 0x54 }
  - { offsetInCU: 0xFAFF, offset: 0xFAFF, size: 0x8, addend: 0x0, symName: __ZNSt3__120__throw_length_errorB8ne180100EPKc, symObjAddr: 0x5438, symBinAddr: 0x100008550, symSize: 0x64 }
  - { offsetInCU: 0xFB27, offset: 0xFB27, size: 0x8, addend: 0x0, symName: __ZNSt3__119__allocate_at_leastB8ne180100INS_9allocatorIiEEEENS_19__allocation_resultINS_16allocator_traitsIT_E7pointerEEERS5_m, symObjAddr: 0x562C, symBinAddr: 0x100008744, symSize: 0x40 }
  - { offsetInCU: 0xFB6A, offset: 0xFB6A, size: 0x8, addend: 0x0, symName: __ZNSt3__142__uninitialized_allocator_move_if_noexceptB8ne180100INS_9allocatorIiEENS_16reverse_iteratorIPiEES5_ivEET1_RT_T0_S9_S6_, symObjAddr: 0x580C, symBinAddr: 0x100008924, symSize: 0xE8 }
  - { offsetInCU: 0xFBE7, offset: 0xFBE7, size: 0x8, addend: 0x0, symName: __ZNSt3__14swapB8ne180100IPiEEvRT_S3_, symObjAddr: 0x5940, symBinAddr: 0x100008A58, symSize: 0x3C }
  - { offsetInCU: 0xFC38, offset: 0xFC38, size: 0x8, addend: 0x0, symName: __ZNSt3__1neB8ne180100IPiS1_EEbRKNS_16reverse_iteratorIT_EERKNS2_IT0_EE, symObjAddr: 0x5990, symBinAddr: 0x100008AA8, symSize: 0x48 }
  - { offsetInCU: 0xFC84, offset: 0xFC84, size: 0x8, addend: 0x0, symName: __ZNSt3__114__construct_atB8ne180100IiJiEPiEEPT_S3_DpOT0_, symObjAddr: 0x59D8, symBinAddr: 0x100008AF0, symSize: 0x24 }
  - { offsetInCU: 0xFCD7, offset: 0xFCD7, size: 0x8, addend: 0x0, symName: __ZNSt3__112__to_addressB8ne180100INS_16reverse_iteratorIPiEEvEEu7__decayIDTclsr19__to_address_helperIT_EE6__callclsr3stdE7declvalIRKS4_EEEEES6_, symObjAddr: 0x59FC, symBinAddr: 0x100008B14, symSize: 0x24 }
  - { offsetInCU: 0xFD0D, offset: 0xFD0D, size: 0x8, addend: 0x0, symName: __ZNSt3__14moveB8ne180100INS_16reverse_iteratorIPiEES3_EET0_T_S5_S4_, symObjAddr: 0x5A68, symBinAddr: 0x100008B80, symSize: 0x78 }
  - { offsetInCU: 0xFD90, offset: 0xFD90, size: 0x8, addend: 0x0, symName: __ZNSt3__16__moveB8ne180100INS_17_ClassicAlgPolicyENS_16reverse_iteratorIPiEES4_S4_EENS_4pairIT0_T2_EES6_T1_S7_, symObjAddr: 0x5B50, symBinAddr: 0x100008C68, symSize: 0x64 }
  - { offsetInCU: 0xFDFC, offset: 0xFDFC, size: 0x8, addend: 0x0, symName: __ZNSt3__123__dispatch_copy_or_moveB8ne180100INS_17_ClassicAlgPolicyENS_11__move_loopIS1_EENS_14__move_trivialENS_16reverse_iteratorIPiEES7_S7_EENS_4pairIT2_T4_EES9_T3_SA_, symObjAddr: 0x5BB4, symBinAddr: 0x100008CCC, symSize: 0x64 }
  - { offsetInCU: 0xFE7A, offset: 0xFE7A, size: 0x8, addend: 0x0, symName: __ZNSt3__121__unwrap_and_dispatchB8ne180100INS_10__overloadINS_11__move_loopINS_17_ClassicAlgPolicyEEENS_14__move_trivialEEENS_16reverse_iteratorIPiEES9_S9_Li0EEENS_4pairIT0_T2_EESB_T1_SC_, symObjAddr: 0x5C18, symBinAddr: 0x100008D30, symSize: 0x12C }
  - { offsetInCU: 0xFF0A, offset: 0xFF0A, size: 0x8, addend: 0x0, symName: __ZNSt3__114__unwrap_rangeB8ne180100INS_16reverse_iteratorIPiEES3_EENS_4pairIT0_S5_EET_S7_, symObjAddr: 0x5D44, symBinAddr: 0x100008E5C, symSize: 0x84 }
  - { offsetInCU: 0x1005E, offset: 0x1005E, size: 0x8, addend: 0x0, symName: __ZNSt3__113__unwrap_iterB8ne180100INS_16reverse_iteratorIPiEENS_18__unwrap_iter_implIS3_Lb0EEELi0EEEDTclsrT0_8__unwrapclsr3stdE7declvalIT_EEEES7_, symObjAddr: 0x5E68, symBinAddr: 0x100008F80, symSize: 0x44 }
  - { offsetInCU: 0x100A2, offset: 0x100A2, size: 0x8, addend: 0x0, symName: __ZNSt3__19make_pairB8ne180100INS_16reverse_iteratorIPiEES3_EENS_4pairINS_18__unwrap_ref_decayIT_E4typeENS5_IT0_E4typeEEEOS6_OS9_, symObjAddr: 0x5EAC, symBinAddr: 0x100008FC4, symSize: 0x38 }
  - { offsetInCU: 0x100F1, offset: 0x100F1, size: 0x8, addend: 0x0, symName: __ZNSt3__114__rewrap_rangeB8ne180100INS_16reverse_iteratorIPiEES3_EET_S4_T0_, symObjAddr: 0x5EE4, symBinAddr: 0x100008FFC, symSize: 0x5C }
  - { offsetInCU: 0x1013D, offset: 0x1013D, size: 0x8, addend: 0x0, symName: __ZNSt3__113__rewrap_iterB8ne180100INS_16reverse_iteratorIPiEES3_NS_18__unwrap_iter_implIS3_Lb0EEEEET_S6_T0_, symObjAddr: 0x5F40, symBinAddr: 0x100009058, symSize: 0x88 }
  - { offsetInCU: 0x1023C, offset: 0x1023C, size: 0x8, addend: 0x0, symName: __ZNSt3__1neB8ne180100ERKNS_19__hash_map_iteratorINS_15__hash_iteratorIPNS_11__hash_nodeINS_17__hash_value_typeIiNS_3setIiNS_4lessIiEENS_9allocatorIiEEEEEEPvEEEEEESH_, symObjAddr: 0x6310, symBinAddr: 0x100009428, symSize: 0x30 }
  - { offsetInCU: 0x102AC, offset: 0x102AC, size: 0x8, addend: 0x0, symName: __ZNSt3__19__launderB8ne180100INS_17__hash_value_typeIiNS_3setIiNS_4lessIiEENS_9allocatorIiEEEEEEEEPT_SA_, symObjAddr: 0x6BD4, symBinAddr: 0x100009CEC, symSize: 0x14 }
  - { offsetInCU: 0x102E3, offset: 0x102E3, size: 0x8, addend: 0x0, symName: __ZNSt3__1neB8ne180100ERKNS_15__hash_iteratorIPNS_11__hash_nodeINS_17__hash_value_typeIiNS_3setIiNS_4lessIiEENS_9allocatorIiEEEEEEPvEEEESF_, symObjAddr: 0x6C28, symBinAddr: 0x100009D40, symSize: 0x34 }
  - { offsetInCU: 0x10320, offset: 0x10320, size: 0x8, addend: 0x0, symName: __ZNSt3__1eqB8ne180100ERKNS_15__hash_iteratorIPNS_11__hash_nodeINS_17__hash_value_typeIiNS_3setIiNS_4lessIiEENS_9allocatorIiEEEEEEPvEEEESF_, symObjAddr: 0x6C5C, symBinAddr: 0x100009D74, symSize: 0x30 }
  - { offsetInCU: 0x10414, offset: 0x10414, size: 0x8, addend: 0x0, symName: __ZNSt3__112__destroy_atB8ne180100INS_3setIiNS_4lessIiEENS_9allocatorIiEEEELi0EEEvPT_, symObjAddr: 0x8334, symBinAddr: 0x10000B44C, symSize: 0x24 }
  - { offsetInCU: 0x10469, offset: 0x10469, size: 0x8, addend: 0x0, symName: __ZNSt3__127__tree_balance_after_insertB8ne180100IPNS_16__tree_node_baseIPvEEEEvT_S5_, symObjAddr: 0x91A4, symBinAddr: 0x10000C2BC, symSize: 0x340 }
  - { offsetInCU: 0x104DD, offset: 0x104DD, size: 0x8, addend: 0x0, symName: __ZNSt3__120__tree_is_left_childB8ne180100IPNS_16__tree_node_baseIPvEEEEbT_, symObjAddr: 0x9524, symBinAddr: 0x10000C63C, symSize: 0x2C }
  - { offsetInCU: 0x10512, offset: 0x10512, size: 0x8, addend: 0x0, symName: __ZNSt3__118__tree_left_rotateB8ne180100IPNS_16__tree_node_baseIPvEEEEvT_, symObjAddr: 0x9550, symBinAddr: 0x10000C668, symSize: 0xEC }
  - { offsetInCU: 0x10551, offset: 0x10551, size: 0x8, addend: 0x0, symName: __ZNSt3__119__tree_right_rotateB8ne180100IPNS_16__tree_node_baseIPvEEEEvT_, symObjAddr: 0x963C, symBinAddr: 0x10000C754, symSize: 0xCC }
  - { offsetInCU: 0x10593, offset: 0x10593, size: 0x8, addend: 0x0, symName: __ZNSt3__1eqB8ne180100ERKNS_19__hash_map_iteratorINS_15__hash_iteratorIPNS_11__hash_nodeINS_17__hash_value_typeIiiEEPvEEEEEESB_, symObjAddr: 0x9A34, symBinAddr: 0x10000CB4C, symSize: 0x30 }
  - { offsetInCU: 0x105D0, offset: 0x105D0, size: 0x8, addend: 0x0, symName: __ZNSt3__1lsB8ne180100INS_11char_traitsIcEEEERNS_13basic_ostreamIcT_EES6_PKc, symObjAddr: 0x9A64, symBinAddr: 0x10000CB7C, symSize: 0x48 }
  - { offsetInCU: 0x10616, offset: 0x10616, size: 0x8, addend: 0x0, symName: __ZNSt3__14swapB8ne180100IiEEvRT_S2_, symObjAddr: 0x9B38, symBinAddr: 0x10000CC50, symSize: 0x3C }
  - { offsetInCU: 0x10667, offset: 0x10667, size: 0x8, addend: 0x0, symName: __ZNSt3__14prevB8ne180100INS_21__tree_const_iteratorIiPNS_11__tree_nodeIiPvEElEELi0EEET_S7_NS_15iterator_traitsIS7_E15difference_typeE, symObjAddr: 0x9BBC, symBinAddr: 0x10000CCD4, symSize: 0x44 }
  - { offsetInCU: 0x106CE, offset: 0x106CE, size: 0x8, addend: 0x0, symName: __ZNSt3__116__pad_and_outputB8ne180100IcNS_11char_traitsIcEEEENS_19ostreambuf_iteratorIT_T0_EES6_PKS4_S8_S8_RNS_8ios_baseES4_, symObjAddr: 0xA5DC, symBinAddr: 0x10000D6F4, symSize: 0x248 }
  - { offsetInCU: 0x1079D, offset: 0x1079D, size: 0x8, addend: 0x0, symName: __ZNSt3__112__to_addressB8ne180100IKcEEPT_S3_, symObjAddr: 0xAB4C, symBinAddr: 0x10000DC64, symSize: 0x14 }
  - { offsetInCU: 0x10805, offset: 0x10805, size: 0x8, addend: 0x0, symName: __ZNSt3__19use_facetB8ne180100INS_5ctypeIcEEEERKT_RKNS_6localeE, symObjAddr: 0xAE44, symBinAddr: 0x10000DF5C, symSize: 0x2C }
  - { offsetInCU: 0x10CD2, offset: 0x10CD2, size: 0x8, addend: 0x0, symName: __ZNSt3__118__constexpr_strlenB8ne180100EPKc, symObjAddr: 0xAEDC, symBinAddr: 0x10000DFF4, symSize: 0x24 }
  - { offsetInCU: 0x10CFE, offset: 0x10CFE, size: 0x8, addend: 0x0, symName: __ZNSt3__116__tree_prev_iterB8ne180100IPNS_16__tree_node_baseIPvEEPNS_15__tree_end_nodeIS4_EEEET_T0_, symObjAddr: 0xAFBC, symBinAddr: 0x10000E0D4, symSize: 0x88 }
  - { offsetInCU: 0x10D4A, offset: 0x10D4A, size: 0x8, addend: 0x0, symName: __ZNSt3__110__tree_maxB8ne180100IPNS_16__tree_node_baseIPvEEEET_S5_, symObjAddr: 0xB044, symBinAddr: 0x10000E15C, symSize: 0x40 }
  - { offsetInCU: 0x10D7F, offset: 0x10D7F, size: 0x8, addend: 0x0, symName: __ZNSt3__113__tree_removeB8ne180100IPNS_16__tree_node_baseIPvEEEEvT_S5_, symObjAddr: 0xB234, symBinAddr: 0x10000E34C, symSize: 0x6E0 }
  - { offsetInCU: 0x10DFD, offset: 0x10DFD, size: 0x8, addend: 0x0, symName: __ZNSt3__116__tree_next_iterB8ne180100IPNS_15__tree_end_nodeIPNS_16__tree_node_baseIPvEEEES5_EET_T0_, symObjAddr: 0xB914, symBinAddr: 0x10000EA2C, symSize: 0x80 }
  - { offsetInCU: 0x10E3B, offset: 0x10E3B, size: 0x8, addend: 0x0, symName: __ZNSt3__110__tree_minB8ne180100IPNS_16__tree_node_baseIPvEEEET_S5_, symObjAddr: 0xB994, symBinAddr: 0x10000EAAC, symSize: 0x40 }
  - { offsetInCU: 0x10E70, offset: 0x10E70, size: 0x8, addend: 0x0, symName: __ZNSt3__111__tree_nextB8ne180100IPNS_16__tree_node_baseIPvEEEET_S5_, symObjAddr: 0xB9D4, symBinAddr: 0x10000EAEC, symSize: 0x80 }
  - { offsetInCU: 0x10EA5, offset: 0x10EA5, size: 0x8, addend: 0x0, symName: __ZNSt3__121__convert_to_integralB8ne180100El, symObjAddr: 0xBA8C, symBinAddr: 0x10000EBA4, symSize: 0x14 }
  - { offsetInCU: 0x10ED1, offset: 0x10ED1, size: 0x8, addend: 0x0, symName: __ZNSt3__19__advanceB8ne180100INS_21__tree_const_iteratorIiPNS_11__tree_nodeIiPvEElEEEEvRT_NS_15iterator_traitsIS7_E15difference_typeENS_26bidirectional_iterator_tagE, symObjAddr: 0xBAA0, symBinAddr: 0x10000EBB8, symSize: 0xA4 }
  - { offsetInCU: 0x10F1A, offset: 0x10F1A, size: 0x8, addend: 0x0, symName: __ZNSt3__112__destroy_atB8ne180100INS_11__hash_nodeINS_17__hash_value_typeIiNS_3setIiNS_4lessIiEENS_9allocatorIiEEEEEEPvEELi0EEEvPT_, symObjAddr: 0xBE7C, symBinAddr: 0x10000EF94, symSize: 0x24 }
  - { offsetInCU: 0x10F51, offset: 0x10F51, size: 0x8, addend: 0x0, symName: __ZNSt3__112__destroy_atB8ne180100INS_4pairIKiNS_3setIiNS_4lessIiEENS_9allocatorIiEEEEEELi0EEEvPT_, symObjAddr: 0xBEA0, symBinAddr: 0x10000EFB8, symSize: 0x24 }
  - { offsetInCU: 0x111D1, offset: 0x111D1, size: 0x8, addend: 0x0, symName: __ZSt28__throw_bad_array_new_lengthB8ne180100v, symObjAddr: 0x3ACC, symBinAddr: 0x100006BE4, symSize: 0x34 }
  - { offsetInCU: 0x11C69, offset: 0x11C69, size: 0x8, addend: 0x0, symName: __ZNSt3__16vectorIiNS_9allocatorIiEEE26__swap_out_circular_bufferERNS_14__split_bufferIiRS2_EE, symObjAddr: 0x5138, symBinAddr: 0x100008250, symSize: 0x110 }
  - { offsetInCU: 0x14946, offset: 0x14946, size: 0x8, addend: 0x0, symName: _main, symObjAddr: 0x0, symBinAddr: 0x100003118, symSize: 0x384 }
  - { offsetInCU: 0x14A16, offset: 0x14A16, size: 0x8, addend: 0x0, symName: __ZN20RandomizedCollectionC1Ev, symObjAddr: 0x384, symBinAddr: 0x10000349C, symSize: 0x2C }
  - { offsetInCU: 0x14A40, offset: 0x14A40, size: 0x8, addend: 0x0, symName: __ZN20RandomizedCollection6insertEi, symObjAddr: 0x3B0, symBinAddr: 0x1000034C8, symSize: 0x100 }
  - { offsetInCU: 0x14A82, offset: 0x14A82, size: 0x8, addend: 0x0, symName: __ZN20RandomizedCollection6removeEi, symObjAddr: 0x4B0, symBinAddr: 0x1000035C8, symSize: 0x360 }
  - { offsetInCU: 0x14AEF, offset: 0x14AEF, size: 0x8, addend: 0x0, symName: __ZN20RandomizedCollection9getRandomEv, symObjAddr: 0x810, symBinAddr: 0x100003928, symSize: 0x50 }
  - { offsetInCU: 0x14B23, offset: 0x14B23, size: 0x8, addend: 0x0, symName: __ZNSt3__113basic_ostreamIcNS_11char_traitsIcEEElsB8ne180100EPFRS3_S4_E, symObjAddr: 0x860, symBinAddr: 0x100003978, symSize: 0x2C }
  - { offsetInCU: 0x14B57, offset: 0x14B57, size: 0x8, addend: 0x0, symName: __ZN20RandomizedCollectionD1Ev, symObjAddr: 0x8E4, symBinAddr: 0x1000039FC, symSize: 0x2C }
  - { offsetInCU: 0x14B83, offset: 0x14B83, size: 0x8, addend: 0x0, symName: __ZN20RandomizedCollectionC2Ev, symObjAddr: 0x91C, symBinAddr: 0x100003A34, symSize: 0xA0 }
  - { offsetInCU: 0x14BAD, offset: 0x14BAD, size: 0x8, addend: 0x0, symName: __ZNSt3__16vectorIiNS_9allocatorIiEEEC1B8ne180100Ev, symObjAddr: 0x9BC, symBinAddr: 0x100003AD4, symSize: 0x2C }
  - { offsetInCU: 0x14BD7, offset: 0x14BD7, size: 0x8, addend: 0x0, symName: __ZNSt3__113unordered_mapIiiNS_4hashIiEENS_8equal_toIiEENS_9allocatorINS_4pairIKiiEEEEEC1B8ne180100Ev, symObjAddr: 0x9E8, symBinAddr: 0x100003B00, symSize: 0x2C }
  - { offsetInCU: 0x14C01, offset: 0x14C01, size: 0x8, addend: 0x0, symName: __ZNSt3__113unordered_mapIiNS_3setIiNS_4lessIiEENS_9allocatorIiEEEENS_4hashIiEENS_8equal_toIiEENS4_INS_4pairIKiS6_EEEEEC1B8ne180100Ev, symObjAddr: 0xA14, symBinAddr: 0x100003B2C, symSize: 0x2C }
  - { offsetInCU: 0x14C2B, offset: 0x14C2B, size: 0x8, addend: 0x0, symName: __ZNSt3__113unordered_mapIiiNS_4hashIiEENS_8equal_toIiEENS_9allocatorINS_4pairIKiiEEEEED1B8ne180100Ev, symObjAddr: 0xA40, symBinAddr: 0x100003B58, symSize: 0x2C }
  - { offsetInCU: 0x14C55, offset: 0x14C55, size: 0x8, addend: 0x0, symName: __ZNSt3__16vectorIiNS_9allocatorIiEEED1B8ne180100Ev, symObjAddr: 0xA6C, symBinAddr: 0x100003B84, symSize: 0x2C }
  - { offsetInCU: 0x14C7F, offset: 0x14C7F, size: 0x8, addend: 0x0, symName: __ZNSt3__16vectorIiNS_9allocatorIiEEEC2B8ne180100Ev, symObjAddr: 0xA98, symBinAddr: 0x100003BB0, symSize: 0x44 }
  - { offsetInCU: 0x14CB3, offset: 0x14CB3, size: 0x8, addend: 0x0, symName: __ZNSt3__117__compressed_pairIPiNS_9allocatorIiEEEC1B8ne180100IDnNS_18__default_init_tagEEEOT_OT0_, symObjAddr: 0xADC, symBinAddr: 0x100003BF4, symSize: 0x3C }
  - { offsetInCU: 0x14D0B, offset: 0x14D0B, size: 0x8, addend: 0x0, symName: __ZNSt3__117__compressed_pairIPiNS_9allocatorIiEEEC2B8ne180100IDnNS_18__default_init_tagEEEOT_OT0_, symObjAddr: 0xB18, symBinAddr: 0x100003C30, symSize: 0x40 }
  - { offsetInCU: 0x14D63, offset: 0x14D63, size: 0x8, addend: 0x0, symName: __ZNSt3__122__compressed_pair_elemIPiLi0ELb0EEC2B8ne180100IDnvEEOT_, symObjAddr: 0xB58, symBinAddr: 0x100003C70, symSize: 0x1C }
  - { offsetInCU: 0x14DA5, offset: 0x14DA5, size: 0x8, addend: 0x0, symName: __ZNSt3__122__compressed_pair_elemINS_9allocatorIiEELi1ELb1EEC2B8ne180100ENS_18__default_init_tagE, symObjAddr: 0xB74, symBinAddr: 0x100003C8C, symSize: 0x2C }
  - { offsetInCU: 0x14DD9, offset: 0x14DD9, size: 0x8, addend: 0x0, symName: __ZNSt3__19allocatorIiEC2B8ne180100Ev, symObjAddr: 0xBA0, symBinAddr: 0x100003CB8, symSize: 0x2C }
  - { offsetInCU: 0x14E03, offset: 0x14E03, size: 0x8, addend: 0x0, symName: __ZNSt3__116__non_trivial_ifILb1ENS_9allocatorIiEEEC2B8ne180100Ev, symObjAddr: 0xBCC, symBinAddr: 0x100003CE4, symSize: 0x14 }
  - { offsetInCU: 0x14E2D, offset: 0x14E2D, size: 0x8, addend: 0x0, symName: __ZNSt3__113unordered_mapIiiNS_4hashIiEENS_8equal_toIiEENS_9allocatorINS_4pairIKiiEEEEEC2B8ne180100Ev, symObjAddr: 0xBE0, symBinAddr: 0x100003CF8, symSize: 0x2C }
  - { offsetInCU: 0x14E57, offset: 0x14E57, size: 0x8, addend: 0x0, symName: __ZNSt3__112__hash_tableINS_17__hash_value_typeIiiEENS_22__unordered_map_hasherIiS2_NS_4hashIiEENS_8equal_toIiEELb1EEENS_21__unordered_map_equalIiS2_S7_S5_Lb1EEENS_9allocatorIS2_EEEC1Ev, symObjAddr: 0xC0C, symBinAddr: 0x100003D24, symSize: 0x2C }
  - { offsetInCU: 0x14E83, offset: 0x14E83, size: 0x8, addend: 0x0, symName: __ZNSt3__112__hash_tableINS_17__hash_value_typeIiiEENS_22__unordered_map_hasherIiS2_NS_4hashIiEENS_8equal_toIiEELb1EEENS_21__unordered_map_equalIiS2_S7_S5_Lb1EEENS_9allocatorIS2_EEEC2Ev, symObjAddr: 0xC38, symBinAddr: 0x100003D50, symSize: 0xA4 }
  - { offsetInCU: 0x14EAF, offset: 0x14EAF, size: 0x8, addend: 0x0, symName: __ZNSt3__110unique_ptrIA_PNS_16__hash_node_baseIPNS_11__hash_nodeINS_17__hash_value_typeIiiEEPvEEEENS_25__bucket_list_deallocatorINS_9allocatorIS9_EEEEEC1B8ne180100ILb1EvEEv, symObjAddr: 0xCDC, symBinAddr: 0x100003DF4, symSize: 0x2C }
  - { offsetInCU: 0x14EE4, offset: 0x14EE4, size: 0x8, addend: 0x0, symName: __ZNSt3__117__compressed_pairINS_16__hash_node_baseIPNS_11__hash_nodeINS_17__hash_value_typeIiiEEPvEEEENS_9allocatorIS6_EEEC1B8ne180100ILb1EvEEv, symObjAddr: 0xD08, symBinAddr: 0x100003E20, symSize: 0x2C }
  - { offsetInCU: 0x14F1E, offset: 0x14F1E, size: 0x8, addend: 0x0, symName: __ZNSt3__117__compressed_pairImNS_22__unordered_map_hasherIiNS_17__hash_value_typeIiiEENS_4hashIiEENS_8equal_toIiEELb1EEEEC1B8ne180100IiNS_18__default_init_tagEEEOT_OT0_, symObjAddr: 0xD34, symBinAddr: 0x100003E4C, symSize: 0x3C }
  - { offsetInCU: 0x14F7B, offset: 0x14F7B, size: 0x8, addend: 0x0, symName: __ZNSt3__117__compressed_pairIfNS_21__unordered_map_equalIiNS_17__hash_value_typeIiiEENS_8equal_toIiEENS_4hashIiEELb1EEEEC1B8ne180100IfNS_18__default_init_tagEEEOT_OT0_, symObjAddr: 0xD70, symBinAddr: 0x100003E88, symSize: 0x3C }
  - { offsetInCU: 0x14FD3, offset: 0x14FD3, size: 0x8, addend: 0x0, symName: __ZNSt3__110unique_ptrIA_PNS_16__hash_node_baseIPNS_11__hash_nodeINS_17__hash_value_typeIiiEEPvEEEENS_25__bucket_list_deallocatorINS_9allocatorIS9_EEEEED1B8ne180100Ev, symObjAddr: 0xDAC, symBinAddr: 0x100003EC4, symSize: 0x2C }
  - { offsetInCU: 0x14FFD, offset: 0x14FFD, size: 0x8, addend: 0x0, symName: __ZNSt3__110unique_ptrIA_PNS_16__hash_node_baseIPNS_11__hash_nodeINS_17__hash_value_typeIiiEEPvEEEENS_25__bucket_list_deallocatorINS_9allocatorIS9_EEEEEC2B8ne180100ILb1EvEEv, symObjAddr: 0xDD8, symBinAddr: 0x100003EF0, symSize: 0x50 }
  - { offsetInCU: 0x15037, offset: 0x15037, size: 0x8, addend: 0x0, symName: __ZNSt3__117__compressed_pairIPPNS_16__hash_node_baseIPNS_11__hash_nodeINS_17__hash_value_typeIiiEEPvEEEENS_25__bucket_list_deallocatorINS_9allocatorIS9_EEEEEC1B8ne180100INS_16__value_init_tagESH_EEOT_OT0_, symObjAddr: 0xE28, symBinAddr: 0x100003F40, symSize: 0x3C }
  - { offsetInCU: 0x1508F, offset: 0x1508F, size: 0x8, addend: 0x0, symName: __ZNSt3__117__compressed_pairIPPNS_16__hash_node_baseIPNS_11__hash_nodeINS_17__hash_value_typeIiiEEPvEEEENS_25__bucket_list_deallocatorINS_9allocatorIS9_EEEEEC2B8ne180100INS_16__value_init_tagESH_EEOT_OT0_, symObjAddr: 0xE64, symBinAddr: 0x100003F7C, symSize: 0x40 }
  - { offsetInCU: 0x150E7, offset: 0x150E7, size: 0x8, addend: 0x0, symName: __ZNSt3__122__compressed_pair_elemIPPNS_16__hash_node_baseIPNS_11__hash_nodeINS_17__hash_value_typeIiiEEPvEEEELi0ELb0EEC2B8ne180100ENS_16__value_init_tagE, symObjAddr: 0xEA4, symBinAddr: 0x100003FBC, symSize: 0x18 }
  - { offsetInCU: 0x1511B, offset: 0x1511B, size: 0x8, addend: 0x0, symName: __ZNSt3__122__compressed_pair_elemINS_25__bucket_list_deallocatorINS_9allocatorIPNS_16__hash_node_baseIPNS_11__hash_nodeINS_17__hash_value_typeIiiEEPvEEEEEEEELi1ELb0EEC2B8ne180100ENS_16__value_init_tagE, symObjAddr: 0xEBC, symBinAddr: 0x100003FD4, symSize: 0x2C }
  - { offsetInCU: 0x1514F, offset: 0x1514F, size: 0x8, addend: 0x0, symName: __ZNSt3__125__bucket_list_deallocatorINS_9allocatorIPNS_16__hash_node_baseIPNS_11__hash_nodeINS_17__hash_value_typeIiiEEPvEEEEEEEC1B8ne180100Ev, symObjAddr: 0xEE8, symBinAddr: 0x100004000, symSize: 0x2C }
  - { offsetInCU: 0x15179, offset: 0x15179, size: 0x8, addend: 0x0, symName: __ZNSt3__125__bucket_list_deallocatorINS_9allocatorIPNS_16__hash_node_baseIPNS_11__hash_nodeINS_17__hash_value_typeIiiEEPvEEEEEEEC2B8ne180100Ev, symObjAddr: 0xF14, symBinAddr: 0x10000402C, symSize: 0x38 }
  - { offsetInCU: 0x151A3, offset: 0x151A3, size: 0x8, addend: 0x0, symName: __ZNSt3__117__compressed_pairImNS_9allocatorIPNS_16__hash_node_baseIPNS_11__hash_nodeINS_17__hash_value_typeIiiEEPvEEEEEEEC1B8ne180100IiNS_18__default_init_tagEEEOT_OT0_, symObjAddr: 0xF4C, symBinAddr: 0x100004064, symSize: 0x3C }
  - { offsetInCU: 0x151FB, offset: 0x151FB, size: 0x8, addend: 0x0, symName: __ZNSt3__117__compressed_pairImNS_9allocatorIPNS_16__hash_node_baseIPNS_11__hash_nodeINS_17__hash_value_typeIiiEEPvEEEEEEEC2B8ne180100IiNS_18__default_init_tagEEEOT_OT0_, symObjAddr: 0xF88, symBinAddr: 0x1000040A0, symSize: 0x40 }
  - { offsetInCU: 0x15253, offset: 0x15253, size: 0x8, addend: 0x0, symName: __ZNSt3__122__compressed_pair_elemImLi0ELb0EEC2B8ne180100IivEEOT_, symObjAddr: 0xFC8, symBinAddr: 0x1000040E0, symSize: 0x24 }
  - { offsetInCU: 0x15295, offset: 0x15295, size: 0x8, addend: 0x0, symName: __ZNSt3__122__compressed_pair_elemINS_9allocatorIPNS_16__hash_node_baseIPNS_11__hash_nodeINS_17__hash_value_typeIiiEEPvEEEEEELi1ELb1EEC2B8ne180100ENS_18__default_init_tagE, symObjAddr: 0xFEC, symBinAddr: 0x100004104, symSize: 0x2C }
  - { offsetInCU: 0x152C9, offset: 0x152C9, size: 0x8, addend: 0x0, symName: __ZNSt3__19allocatorIPNS_16__hash_node_baseIPNS_11__hash_nodeINS_17__hash_value_typeIiiEEPvEEEEEC2B8ne180100Ev, symObjAddr: 0x1018, symBinAddr: 0x100004130, symSize: 0x2C }
  - { offsetInCU: 0x152F3, offset: 0x152F3, size: 0x8, addend: 0x0, symName: __ZNSt3__116__non_trivial_ifILb1ENS_9allocatorIPNS_16__hash_node_baseIPNS_11__hash_nodeINS_17__hash_value_typeIiiEEPvEEEEEEEC2B8ne180100Ev, symObjAddr: 0x1044, symBinAddr: 0x10000415C, symSize: 0x14 }
  - { offsetInCU: 0x1531D, offset: 0x1531D, size: 0x8, addend: 0x0, symName: __ZNSt3__117__compressed_pairINS_16__hash_node_baseIPNS_11__hash_nodeINS_17__hash_value_typeIiiEEPvEEEENS_9allocatorIS6_EEEC2B8ne180100ILb1EvEEv, symObjAddr: 0x1058, symBinAddr: 0x100004170, symSize: 0x34 }
  - { offsetInCU: 0x15352, offset: 0x15352, size: 0x8, addend: 0x0, symName: __ZNSt3__122__compressed_pair_elemINS_16__hash_node_baseIPNS_11__hash_nodeINS_17__hash_value_typeIiiEEPvEEEELi0ELb0EEC2B8ne180100ENS_16__value_init_tagE, symObjAddr: 0x108C, symBinAddr: 0x1000041A4, symSize: 0x2C }
  - { offsetInCU: 0x15386, offset: 0x15386, size: 0x8, addend: 0x0, symName: __ZNSt3__122__compressed_pair_elemINS_9allocatorINS_11__hash_nodeINS_17__hash_value_typeIiiEEPvEEEELi1ELb1EEC2B8ne180100ENS_16__value_init_tagE, symObjAddr: 0x10B8, symBinAddr: 0x1000041D0, symSize: 0x2C }
  - { offsetInCU: 0x153BA, offset: 0x153BA, size: 0x8, addend: 0x0, symName: __ZNSt3__116__hash_node_baseIPNS_11__hash_nodeINS_17__hash_value_typeIiiEEPvEEEC1B8ne180100Ev, symObjAddr: 0x10E4, symBinAddr: 0x1000041FC, symSize: 0x2C }
  - { offsetInCU: 0x153E4, offset: 0x153E4, size: 0x8, addend: 0x0, symName: __ZNSt3__116__hash_node_baseIPNS_11__hash_nodeINS_17__hash_value_typeIiiEEPvEEEC2B8ne180100Ev, symObjAddr: 0x1110, symBinAddr: 0x100004228, symSize: 0x18 }
  - { offsetInCU: 0x1540E, offset: 0x1540E, size: 0x8, addend: 0x0, symName: __ZNSt3__19allocatorINS_11__hash_nodeINS_17__hash_value_typeIiiEEPvEEEC2B8ne180100Ev, symObjAddr: 0x1128, symBinAddr: 0x100004240, symSize: 0x2C }
  - { offsetInCU: 0x15438, offset: 0x15438, size: 0x8, addend: 0x0, symName: __ZNSt3__116__non_trivial_ifILb1ENS_9allocatorINS_11__hash_nodeINS_17__hash_value_typeIiiEEPvEEEEEC2B8ne180100Ev, symObjAddr: 0x1154, symBinAddr: 0x10000426C, symSize: 0x14 }
  - { offsetInCU: 0x15462, offset: 0x15462, size: 0x8, addend: 0x0, symName: __ZNSt3__117__compressed_pairImNS_22__unordered_map_hasherIiNS_17__hash_value_typeIiiEENS_4hashIiEENS_8equal_toIiEELb1EEEEC2B8ne180100IiNS_18__default_init_tagEEEOT_OT0_, symObjAddr: 0x1168, symBinAddr: 0x100004280, symSize: 0x40 }
  - { offsetInCU: 0x154BA, offset: 0x154BA, size: 0x8, addend: 0x0, symName: __ZNSt3__122__compressed_pair_elemINS_22__unordered_map_hasherIiNS_17__hash_value_typeIiiEENS_4hashIiEENS_8equal_toIiEELb1EEELi1ELb1EEC2B8ne180100ENS_18__default_init_tagE, symObjAddr: 0x11A8, symBinAddr: 0x1000042C0, symSize: 0x2C }
  - { offsetInCU: 0x154EE, offset: 0x154EE, size: 0x8, addend: 0x0, symName: __ZNSt3__122__unordered_map_hasherIiNS_17__hash_value_typeIiiEENS_4hashIiEENS_8equal_toIiEELb1EEC2B8ne180100Ev, symObjAddr: 0x11D4, symBinAddr: 0x1000042EC, symSize: 0x14 }
  - { offsetInCU: 0x15518, offset: 0x15518, size: 0x8, addend: 0x0, symName: __ZNSt3__117__compressed_pairIfNS_21__unordered_map_equalIiNS_17__hash_value_typeIiiEENS_8equal_toIiEENS_4hashIiEELb1EEEEC2B8ne180100IfNS_18__default_init_tagEEEOT_OT0_, symObjAddr: 0x11E8, symBinAddr: 0x100004300, symSize: 0x40 }
  - { offsetInCU: 0x15570, offset: 0x15570, size: 0x8, addend: 0x0, symName: __ZNSt3__122__compressed_pair_elemIfLi0ELb0EEC2B8ne180100IfvEEOT_, symObjAddr: 0x1228, symBinAddr: 0x100004340, symSize: 0x24 }
  - { offsetInCU: 0x155B2, offset: 0x155B2, size: 0x8, addend: 0x0, symName: __ZNSt3__122__compressed_pair_elemINS_21__unordered_map_equalIiNS_17__hash_value_typeIiiEENS_8equal_toIiEENS_4hashIiEELb1EEELi1ELb1EEC2B8ne180100ENS_18__default_init_tagE, symObjAddr: 0x124C, symBinAddr: 0x100004364, symSize: 0x2C }
  - { offsetInCU: 0x155E6, offset: 0x155E6, size: 0x8, addend: 0x0, symName: __ZNSt3__121__unordered_map_equalIiNS_17__hash_value_typeIiiEENS_8equal_toIiEENS_4hashIiEELb1EEC2B8ne180100Ev, symObjAddr: 0x1278, symBinAddr: 0x100004390, symSize: 0x14 }
  - { offsetInCU: 0x15610, offset: 0x15610, size: 0x8, addend: 0x0, symName: __ZNSt3__110unique_ptrIA_PNS_16__hash_node_baseIPNS_11__hash_nodeINS_17__hash_value_typeIiiEEPvEEEENS_25__bucket_list_deallocatorINS_9allocatorIS9_EEEEED2B8ne180100Ev, symObjAddr: 0x128C, symBinAddr: 0x1000043A4, symSize: 0x30 }
  - { offsetInCU: 0x1563A, offset: 0x1563A, size: 0x8, addend: 0x0, symName: __ZNSt3__110unique_ptrIA_PNS_16__hash_node_baseIPNS_11__hash_nodeINS_17__hash_value_typeIiiEEPvEEEENS_25__bucket_list_deallocatorINS_9allocatorIS9_EEEEE5resetB8ne180100EDn, symObjAddr: 0x12BC, symBinAddr: 0x1000043D4, symSize: 0x6C }
  - { offsetInCU: 0x1567A, offset: 0x1567A, size: 0x8, addend: 0x0, symName: __ZNSt3__117__compressed_pairIPPNS_16__hash_node_baseIPNS_11__hash_nodeINS_17__hash_value_typeIiiEEPvEEEENS_25__bucket_list_deallocatorINS_9allocatorIS9_EEEEE5firstB8ne180100Ev, symObjAddr: 0x1328, symBinAddr: 0x100004440, symSize: 0x24 }
  - { offsetInCU: 0x156A0, offset: 0x156A0, size: 0x8, addend: 0x0, symName: __ZNSt3__117__compressed_pairIPPNS_16__hash_node_baseIPNS_11__hash_nodeINS_17__hash_value_typeIiiEEPvEEEENS_25__bucket_list_deallocatorINS_9allocatorIS9_EEEEE6secondB8ne180100Ev, symObjAddr: 0x134C, symBinAddr: 0x100004464, symSize: 0x28 }
  - { offsetInCU: 0x156C6, offset: 0x156C6, size: 0x8, addend: 0x0, symName: __ZNSt3__125__bucket_list_deallocatorINS_9allocatorIPNS_16__hash_node_baseIPNS_11__hash_nodeINS_17__hash_value_typeIiiEEPvEEEEEEEclB8ne180100EPSA_, symObjAddr: 0x1374, symBinAddr: 0x10000448C, symSize: 0x58 }
  - { offsetInCU: 0x156FB, offset: 0x156FB, size: 0x8, addend: 0x0, symName: __ZNSt3__122__compressed_pair_elemIPPNS_16__hash_node_baseIPNS_11__hash_nodeINS_17__hash_value_typeIiiEEPvEEEELi0ELb0EE5__getB8ne180100Ev, symObjAddr: 0x13CC, symBinAddr: 0x1000044E4, symSize: 0x14 }
  - { offsetInCU: 0x15721, offset: 0x15721, size: 0x8, addend: 0x0, symName: __ZNSt3__122__compressed_pair_elemINS_25__bucket_list_deallocatorINS_9allocatorIPNS_16__hash_node_baseIPNS_11__hash_nodeINS_17__hash_value_typeIiiEEPvEEEEEEEELi1ELb0EE5__getB8ne180100Ev, symObjAddr: 0x13E0, symBinAddr: 0x1000044F8, symSize: 0x14 }
  - { offsetInCU: 0x15747, offset: 0x15747, size: 0x8, addend: 0x0, symName: __ZNSt3__116allocator_traitsINS_9allocatorIPNS_16__hash_node_baseIPNS_11__hash_nodeINS_17__hash_value_typeIiiEEPvEEEEEEE10deallocateB8ne180100ERSB_PSA_m, symObjAddr: 0x13F4, symBinAddr: 0x10000450C, symSize: 0x34 }
  - { offsetInCU: 0x15789, offset: 0x15789, size: 0x8, addend: 0x0, symName: __ZNSt3__125__bucket_list_deallocatorINS_9allocatorIPNS_16__hash_node_baseIPNS_11__hash_nodeINS_17__hash_value_typeIiiEEPvEEEEEEE7__allocB8ne180100Ev, symObjAddr: 0x1428, symBinAddr: 0x100004540, symSize: 0x24 }
  - { offsetInCU: 0x157AF, offset: 0x157AF, size: 0x8, addend: 0x0, symName: __ZNSt3__125__bucket_list_deallocatorINS_9allocatorIPNS_16__hash_node_baseIPNS_11__hash_nodeINS_17__hash_value_typeIiiEEPvEEEEEEE4sizeB8ne180100Ev, symObjAddr: 0x144C, symBinAddr: 0x100004564, symSize: 0x24 }
  - { offsetInCU: 0x157D5, offset: 0x157D5, size: 0x8, addend: 0x0, symName: __ZNSt3__19allocatorIPNS_16__hash_node_baseIPNS_11__hash_nodeINS_17__hash_value_typeIiiEEPvEEEEE10deallocateB8ne180100EPS9_m, symObjAddr: 0x1470, symBinAddr: 0x100004588, symSize: 0x70 }
  - { offsetInCU: 0x15817, offset: 0x15817, size: 0x8, addend: 0x0, symName: __ZNSt3__117__compressed_pairImNS_9allocatorIPNS_16__hash_node_baseIPNS_11__hash_nodeINS_17__hash_value_typeIiiEEPvEEEEEEE6secondB8ne180100Ev, symObjAddr: 0x1568, symBinAddr: 0x100004680, symSize: 0x24 }
  - { offsetInCU: 0x1583D, offset: 0x1583D, size: 0x8, addend: 0x0, symName: __ZNSt3__122__compressed_pair_elemINS_9allocatorIPNS_16__hash_node_baseIPNS_11__hash_nodeINS_17__hash_value_typeIiiEEPvEEEEEELi1ELb1EE5__getB8ne180100Ev, symObjAddr: 0x158C, symBinAddr: 0x1000046A4, symSize: 0x14 }
  - { offsetInCU: 0x15863, offset: 0x15863, size: 0x8, addend: 0x0, symName: __ZNSt3__117__compressed_pairImNS_9allocatorIPNS_16__hash_node_baseIPNS_11__hash_nodeINS_17__hash_value_typeIiiEEPvEEEEEEE5firstB8ne180100Ev, symObjAddr: 0x15A0, symBinAddr: 0x1000046B8, symSize: 0x24 }
  - { offsetInCU: 0x15889, offset: 0x15889, size: 0x8, addend: 0x0, symName: __ZNSt3__122__compressed_pair_elemImLi0ELb0EE5__getB8ne180100Ev, symObjAddr: 0x15C4, symBinAddr: 0x1000046DC, symSize: 0x14 }
  - { offsetInCU: 0x158AF, offset: 0x158AF, size: 0x8, addend: 0x0, symName: __ZNSt3__113unordered_mapIiNS_3setIiNS_4lessIiEENS_9allocatorIiEEEENS_4hashIiEENS_8equal_toIiEENS4_INS_4pairIKiS6_EEEEEC2B8ne180100Ev, symObjAddr: 0x15D8, symBinAddr: 0x1000046F0, symSize: 0x2C }
  - { offsetInCU: 0x158D9, offset: 0x158D9, size: 0x8, addend: 0x0, symName: __ZNSt3__112__hash_tableINS_17__hash_value_typeIiNS_3setIiNS_4lessIiEENS_9allocatorIiEEEEEENS_22__unordered_map_hasherIiS8_NS_4hashIiEENS_8equal_toIiEELb1EEENS_21__unordered_map_equalIiS8_SD_SB_Lb1EEENS5_IS8_EEEC1Ev, symObjAddr: 0x1604, symBinAddr: 0x10000471C, symSize: 0x2C }
  - { offsetInCU: 0x15905, offset: 0x15905, size: 0x8, addend: 0x0, symName: __ZNSt3__112__hash_tableINS_17__hash_value_typeIiNS_3setIiNS_4lessIiEENS_9allocatorIiEEEEEENS_22__unordered_map_hasherIiS8_NS_4hashIiEENS_8equal_toIiEELb1EEENS_21__unordered_map_equalIiS8_SD_SB_Lb1EEENS5_IS8_EEEC2Ev, symObjAddr: 0x1630, symBinAddr: 0x100004748, symSize: 0xA4 }
  - { offsetInCU: 0x15931, offset: 0x15931, size: 0x8, addend: 0x0, symName: __ZNSt3__110unique_ptrIA_PNS_16__hash_node_baseIPNS_11__hash_nodeINS_17__hash_value_typeIiNS_3setIiNS_4lessIiEENS_9allocatorIiEEEEEEPvEEEENS_25__bucket_list_deallocatorINS7_ISF_EEEEEC1B8ne180100ILb1EvEEv, symObjAddr: 0x16D4, symBinAddr: 0x1000047EC, symSize: 0x2C }
  - { offsetInCU: 0x15966, offset: 0x15966, size: 0x8, addend: 0x0, symName: __ZNSt3__117__compressed_pairINS_16__hash_node_baseIPNS_11__hash_nodeINS_17__hash_value_typeIiNS_3setIiNS_4lessIiEENS_9allocatorIiEEEEEEPvEEEENS7_ISC_EEEC1B8ne180100ILb1EvEEv, symObjAddr: 0x1700, symBinAddr: 0x100004818, symSize: 0x2C }
  - { offsetInCU: 0x1599B, offset: 0x1599B, size: 0x8, addend: 0x0, symName: __ZNSt3__117__compressed_pairImNS_22__unordered_map_hasherIiNS_17__hash_value_typeIiNS_3setIiNS_4lessIiEENS_9allocatorIiEEEEEENS_4hashIiEENS_8equal_toIiEELb1EEEEC1B8ne180100IiNS_18__default_init_tagEEEOT_OT0_, symObjAddr: 0x172C, symBinAddr: 0x100004844, symSize: 0x3C }
  - { offsetInCU: 0x159F3, offset: 0x159F3, size: 0x8, addend: 0x0, symName: __ZNSt3__117__compressed_pairIfNS_21__unordered_map_equalIiNS_17__hash_value_typeIiNS_3setIiNS_4lessIiEENS_9allocatorIiEEEEEENS_8equal_toIiEENS_4hashIiEELb1EEEEC1B8ne180100IfNS_18__default_init_tagEEEOT_OT0_, symObjAddr: 0x1768, symBinAddr: 0x100004880, symSize: 0x3C }
  - { offsetInCU: 0x15A4B, offset: 0x15A4B, size: 0x8, addend: 0x0, symName: __ZNSt3__110unique_ptrIA_PNS_16__hash_node_baseIPNS_11__hash_nodeINS_17__hash_value_typeIiNS_3setIiNS_4lessIiEENS_9allocatorIiEEEEEEPvEEEENS_25__bucket_list_deallocatorINS7_ISF_EEEEED1B8ne180100Ev, symObjAddr: 0x17A4, symBinAddr: 0x1000048BC, symSize: 0x2C }
  - { offsetInCU: 0x15A75, offset: 0x15A75, size: 0x8, addend: 0x0, symName: __ZNSt3__110unique_ptrIA_PNS_16__hash_node_baseIPNS_11__hash_nodeINS_17__hash_value_typeIiNS_3setIiNS_4lessIiEENS_9allocatorIiEEEEEEPvEEEENS_25__bucket_list_deallocatorINS7_ISF_EEEEEC2B8ne180100ILb1EvEEv, symObjAddr: 0x17D0, symBinAddr: 0x1000048E8, symSize: 0x50 }
  - { offsetInCU: 0x15AAA, offset: 0x15AAA, size: 0x8, addend: 0x0, symName: __ZNSt3__117__compressed_pairIPPNS_16__hash_node_baseIPNS_11__hash_nodeINS_17__hash_value_typeIiNS_3setIiNS_4lessIiEENS_9allocatorIiEEEEEEPvEEEENS_25__bucket_list_deallocatorINS7_ISF_EEEEEC1B8ne180100INS_16__value_init_tagESM_EEOT_OT0_, symObjAddr: 0x1820, symBinAddr: 0x100004938, symSize: 0x3C }
  - { offsetInCU: 0x15B02, offset: 0x15B02, size: 0x8, addend: 0x0, symName: __ZNSt3__117__compressed_pairIPPNS_16__hash_node_baseIPNS_11__hash_nodeINS_17__hash_value_typeIiNS_3setIiNS_4lessIiEENS_9allocatorIiEEEEEEPvEEEENS_25__bucket_list_deallocatorINS7_ISF_EEEEEC2B8ne180100INS_16__value_init_tagESM_EEOT_OT0_, symObjAddr: 0x185C, symBinAddr: 0x100004974, symSize: 0x40 }
  - { offsetInCU: 0x15B5A, offset: 0x15B5A, size: 0x8, addend: 0x0, symName: __ZNSt3__122__compressed_pair_elemIPPNS_16__hash_node_baseIPNS_11__hash_nodeINS_17__hash_value_typeIiNS_3setIiNS_4lessIiEENS_9allocatorIiEEEEEEPvEEEELi0ELb0EEC2B8ne180100ENS_16__value_init_tagE, symObjAddr: 0x189C, symBinAddr: 0x1000049B4, symSize: 0x18 }
  - { offsetInCU: 0x15B8E, offset: 0x15B8E, size: 0x8, addend: 0x0, symName: __ZNSt3__122__compressed_pair_elemINS_25__bucket_list_deallocatorINS_9allocatorIPNS_16__hash_node_baseIPNS_11__hash_nodeINS_17__hash_value_typeIiNS_3setIiNS_4lessIiEENS2_IiEEEEEEPvEEEEEEEELi1ELb0EEC2B8ne180100ENS_16__value_init_tagE, symObjAddr: 0x18B4, symBinAddr: 0x1000049CC, symSize: 0x2C }
  - { offsetInCU: 0x15BC2, offset: 0x15BC2, size: 0x8, addend: 0x0, symName: __ZNSt3__125__bucket_list_deallocatorINS_9allocatorIPNS_16__hash_node_baseIPNS_11__hash_nodeINS_17__hash_value_typeIiNS_3setIiNS_4lessIiEENS1_IiEEEEEEPvEEEEEEEC1B8ne180100Ev, symObjAddr: 0x18E0, symBinAddr: 0x1000049F8, symSize: 0x2C }
  - { offsetInCU: 0x15BEC, offset: 0x15BEC, size: 0x8, addend: 0x0, symName: __ZNSt3__125__bucket_list_deallocatorINS_9allocatorIPNS_16__hash_node_baseIPNS_11__hash_nodeINS_17__hash_value_typeIiNS_3setIiNS_4lessIiEENS1_IiEEEEEEPvEEEEEEEC2B8ne180100Ev, symObjAddr: 0x190C, symBinAddr: 0x100004A24, symSize: 0x38 }
  - { offsetInCU: 0x15C16, offset: 0x15C16, size: 0x8, addend: 0x0, symName: __ZNSt3__117__compressed_pairImNS_9allocatorIPNS_16__hash_node_baseIPNS_11__hash_nodeINS_17__hash_value_typeIiNS_3setIiNS_4lessIiEENS1_IiEEEEEEPvEEEEEEEC1B8ne180100IiNS_18__default_init_tagEEEOT_OT0_, symObjAddr: 0x1944, symBinAddr: 0x100004A5C, symSize: 0x3C }
  - { offsetInCU: 0x15C6E, offset: 0x15C6E, size: 0x8, addend: 0x0, symName: __ZNSt3__117__compressed_pairImNS_9allocatorIPNS_16__hash_node_baseIPNS_11__hash_nodeINS_17__hash_value_typeIiNS_3setIiNS_4lessIiEENS1_IiEEEEEEPvEEEEEEEC2B8ne180100IiNS_18__default_init_tagEEEOT_OT0_, symObjAddr: 0x1980, symBinAddr: 0x100004A98, symSize: 0x40 }
  - { offsetInCU: 0x15CC6, offset: 0x15CC6, size: 0x8, addend: 0x0, symName: __ZNSt3__122__compressed_pair_elemINS_9allocatorIPNS_16__hash_node_baseIPNS_11__hash_nodeINS_17__hash_value_typeIiNS_3setIiNS_4lessIiEENS1_IiEEEEEEPvEEEEEELi1ELb1EEC2B8ne180100ENS_18__default_init_tagE, symObjAddr: 0x19C0, symBinAddr: 0x100004AD8, symSize: 0x2C }
  - { offsetInCU: 0x15CFA, offset: 0x15CFA, size: 0x8, addend: 0x0, symName: __ZNSt3__19allocatorIPNS_16__hash_node_baseIPNS_11__hash_nodeINS_17__hash_value_typeIiNS_3setIiNS_4lessIiEENS0_IiEEEEEEPvEEEEEC2B8ne180100Ev, symObjAddr: 0x19EC, symBinAddr: 0x100004B04, symSize: 0x2C }
  - { offsetInCU: 0x15D24, offset: 0x15D24, size: 0x8, addend: 0x0, symName: __ZNSt3__116__non_trivial_ifILb1ENS_9allocatorIPNS_16__hash_node_baseIPNS_11__hash_nodeINS_17__hash_value_typeIiNS_3setIiNS_4lessIiEENS1_IiEEEEEEPvEEEEEEEC2B8ne180100Ev, symObjAddr: 0x1A18, symBinAddr: 0x100004B30, symSize: 0x14 }
  - { offsetInCU: 0x15D4E, offset: 0x15D4E, size: 0x8, addend: 0x0, symName: __ZNSt3__117__compressed_pairINS_16__hash_node_baseIPNS_11__hash_nodeINS_17__hash_value_typeIiNS_3setIiNS_4lessIiEENS_9allocatorIiEEEEEEPvEEEENS7_ISC_EEEC2B8ne180100ILb1EvEEv, symObjAddr: 0x1A2C, symBinAddr: 0x100004B44, symSize: 0x34 }
  - { offsetInCU: 0x15D83, offset: 0x15D83, size: 0x8, addend: 0x0, symName: __ZNSt3__122__compressed_pair_elemINS_16__hash_node_baseIPNS_11__hash_nodeINS_17__hash_value_typeIiNS_3setIiNS_4lessIiEENS_9allocatorIiEEEEEEPvEEEELi0ELb0EEC2B8ne180100ENS_16__value_init_tagE, symObjAddr: 0x1A60, symBinAddr: 0x100004B78, symSize: 0x2C }
  - { offsetInCU: 0x15DB7, offset: 0x15DB7, size: 0x8, addend: 0x0, symName: __ZNSt3__122__compressed_pair_elemINS_9allocatorINS_11__hash_nodeINS_17__hash_value_typeIiNS_3setIiNS_4lessIiEENS1_IiEEEEEEPvEEEELi1ELb1EEC2B8ne180100ENS_16__value_init_tagE, symObjAddr: 0x1A8C, symBinAddr: 0x100004BA4, symSize: 0x2C }
  - { offsetInCU: 0x15DEB, offset: 0x15DEB, size: 0x8, addend: 0x0, symName: __ZNSt3__116__hash_node_baseIPNS_11__hash_nodeINS_17__hash_value_typeIiNS_3setIiNS_4lessIiEENS_9allocatorIiEEEEEEPvEEEC1B8ne180100Ev, symObjAddr: 0x1AB8, symBinAddr: 0x100004BD0, symSize: 0x2C }
  - { offsetInCU: 0x15E15, offset: 0x15E15, size: 0x8, addend: 0x0, symName: __ZNSt3__116__hash_node_baseIPNS_11__hash_nodeINS_17__hash_value_typeIiNS_3setIiNS_4lessIiEENS_9allocatorIiEEEEEEPvEEEC2B8ne180100Ev, symObjAddr: 0x1AE4, symBinAddr: 0x100004BFC, symSize: 0x18 }
  - { offsetInCU: 0x15E3F, offset: 0x15E3F, size: 0x8, addend: 0x0, symName: __ZNSt3__19allocatorINS_11__hash_nodeINS_17__hash_value_typeIiNS_3setIiNS_4lessIiEENS0_IiEEEEEEPvEEEC2B8ne180100Ev, symObjAddr: 0x1AFC, symBinAddr: 0x100004C14, symSize: 0x2C }
  - { offsetInCU: 0x15E69, offset: 0x15E69, size: 0x8, addend: 0x0, symName: __ZNSt3__116__non_trivial_ifILb1ENS_9allocatorINS_11__hash_nodeINS_17__hash_value_typeIiNS_3setIiNS_4lessIiEENS1_IiEEEEEEPvEEEEEC2B8ne180100Ev, symObjAddr: 0x1B28, symBinAddr: 0x100004C40, symSize: 0x14 }
  - { offsetInCU: 0x15E93, offset: 0x15E93, size: 0x8, addend: 0x0, symName: __ZNSt3__117__compressed_pairImNS_22__unordered_map_hasherIiNS_17__hash_value_typeIiNS_3setIiNS_4lessIiEENS_9allocatorIiEEEEEENS_4hashIiEENS_8equal_toIiEELb1EEEEC2B8ne180100IiNS_18__default_init_tagEEEOT_OT0_, symObjAddr: 0x1B3C, symBinAddr: 0x100004C54, symSize: 0x40 }
  - { offsetInCU: 0x15EEB, offset: 0x15EEB, size: 0x8, addend: 0x0, symName: __ZNSt3__122__compressed_pair_elemINS_22__unordered_map_hasherIiNS_17__hash_value_typeIiNS_3setIiNS_4lessIiEENS_9allocatorIiEEEEEENS_4hashIiEENS_8equal_toIiEELb1EEELi1ELb1EEC2B8ne180100ENS_18__default_init_tagE, symObjAddr: 0x1B7C, symBinAddr: 0x100004C94, symSize: 0x2C }
  - { offsetInCU: 0x15F1F, offset: 0x15F1F, size: 0x8, addend: 0x0, symName: __ZNSt3__122__unordered_map_hasherIiNS_17__hash_value_typeIiNS_3setIiNS_4lessIiEENS_9allocatorIiEEEEEENS_4hashIiEENS_8equal_toIiEELb1EEC2B8ne180100Ev, symObjAddr: 0x1BA8, symBinAddr: 0x100004CC0, symSize: 0x14 }
  - { offsetInCU: 0x15F49, offset: 0x15F49, size: 0x8, addend: 0x0, symName: __ZNSt3__117__compressed_pairIfNS_21__unordered_map_equalIiNS_17__hash_value_typeIiNS_3setIiNS_4lessIiEENS_9allocatorIiEEEEEENS_8equal_toIiEENS_4hashIiEELb1EEEEC2B8ne180100IfNS_18__default_init_tagEEEOT_OT0_, symObjAddr: 0x1BBC, symBinAddr: 0x100004CD4, symSize: 0x40 }
  - { offsetInCU: 0x15FA1, offset: 0x15FA1, size: 0x8, addend: 0x0, symName: __ZNSt3__122__compressed_pair_elemINS_21__unordered_map_equalIiNS_17__hash_value_typeIiNS_3setIiNS_4lessIiEENS_9allocatorIiEEEEEENS_8equal_toIiEENS_4hashIiEELb1EEELi1ELb1EEC2B8ne180100ENS_18__default_init_tagE, symObjAddr: 0x1BFC, symBinAddr: 0x100004D14, symSize: 0x2C }
  - { offsetInCU: 0x15FD5, offset: 0x15FD5, size: 0x8, addend: 0x0, symName: __ZNSt3__121__unordered_map_equalIiNS_17__hash_value_typeIiNS_3setIiNS_4lessIiEENS_9allocatorIiEEEEEENS_8equal_toIiEENS_4hashIiEELb1EEC2B8ne180100Ev, symObjAddr: 0x1C28, symBinAddr: 0x100004D40, symSize: 0x14 }
  - { offsetInCU: 0x15FFF, offset: 0x15FFF, size: 0x8, addend: 0x0, symName: __ZNSt3__110unique_ptrIA_PNS_16__hash_node_baseIPNS_11__hash_nodeINS_17__hash_value_typeIiNS_3setIiNS_4lessIiEENS_9allocatorIiEEEEEEPvEEEENS_25__bucket_list_deallocatorINS7_ISF_EEEEED2B8ne180100Ev, symObjAddr: 0x1C3C, symBinAddr: 0x100004D54, symSize: 0x30 }
  - { offsetInCU: 0x16029, offset: 0x16029, size: 0x8, addend: 0x0, symName: __ZNSt3__110unique_ptrIA_PNS_16__hash_node_baseIPNS_11__hash_nodeINS_17__hash_value_typeIiNS_3setIiNS_4lessIiEENS_9allocatorIiEEEEEEPvEEEENS_25__bucket_list_deallocatorINS7_ISF_EEEEE5resetB8ne180100EDn, symObjAddr: 0x1C6C, symBinAddr: 0x100004D84, symSize: 0x6C }
  - { offsetInCU: 0x16069, offset: 0x16069, size: 0x8, addend: 0x0, symName: __ZNSt3__117__compressed_pairIPPNS_16__hash_node_baseIPNS_11__hash_nodeINS_17__hash_value_typeIiNS_3setIiNS_4lessIiEENS_9allocatorIiEEEEEEPvEEEENS_25__bucket_list_deallocatorINS7_ISF_EEEEE5firstB8ne180100Ev, symObjAddr: 0x1CD8, symBinAddr: 0x100004DF0, symSize: 0x24 }
  - { offsetInCU: 0x1608F, offset: 0x1608F, size: 0x8, addend: 0x0, symName: __ZNSt3__117__compressed_pairIPPNS_16__hash_node_baseIPNS_11__hash_nodeINS_17__hash_value_typeIiNS_3setIiNS_4lessIiEENS_9allocatorIiEEEEEEPvEEEENS_25__bucket_list_deallocatorINS7_ISF_EEEEE6secondB8ne180100Ev, symObjAddr: 0x1CFC, symBinAddr: 0x100004E14, symSize: 0x28 }
  - { offsetInCU: 0x160B5, offset: 0x160B5, size: 0x8, addend: 0x0, symName: __ZNSt3__125__bucket_list_deallocatorINS_9allocatorIPNS_16__hash_node_baseIPNS_11__hash_nodeINS_17__hash_value_typeIiNS_3setIiNS_4lessIiEENS1_IiEEEEEEPvEEEEEEEclB8ne180100EPSF_, symObjAddr: 0x1D24, symBinAddr: 0x100004E3C, symSize: 0x58 }
  - { offsetInCU: 0x160EA, offset: 0x160EA, size: 0x8, addend: 0x0, symName: __ZNSt3__122__compressed_pair_elemIPPNS_16__hash_node_baseIPNS_11__hash_nodeINS_17__hash_value_typeIiNS_3setIiNS_4lessIiEENS_9allocatorIiEEEEEEPvEEEELi0ELb0EE5__getB8ne180100Ev, symObjAddr: 0x1D7C, symBinAddr: 0x100004E94, symSize: 0x14 }
  - { offsetInCU: 0x16110, offset: 0x16110, size: 0x8, addend: 0x0, symName: __ZNSt3__122__compressed_pair_elemINS_25__bucket_list_deallocatorINS_9allocatorIPNS_16__hash_node_baseIPNS_11__hash_nodeINS_17__hash_value_typeIiNS_3setIiNS_4lessIiEENS2_IiEEEEEEPvEEEEEEEELi1ELb0EE5__getB8ne180100Ev, symObjAddr: 0x1D90, symBinAddr: 0x100004EA8, symSize: 0x14 }
  - { offsetInCU: 0x16136, offset: 0x16136, size: 0x8, addend: 0x0, symName: __ZNSt3__116allocator_traitsINS_9allocatorIPNS_16__hash_node_baseIPNS_11__hash_nodeINS_17__hash_value_typeIiNS_3setIiNS_4lessIiEENS1_IiEEEEEEPvEEEEEEE10deallocateB8ne180100ERSG_PSF_m, symObjAddr: 0x1DA4, symBinAddr: 0x100004EBC, symSize: 0x34 }
  - { offsetInCU: 0x16178, offset: 0x16178, size: 0x8, addend: 0x0, symName: __ZNSt3__125__bucket_list_deallocatorINS_9allocatorIPNS_16__hash_node_baseIPNS_11__hash_nodeINS_17__hash_value_typeIiNS_3setIiNS_4lessIiEENS1_IiEEEEEEPvEEEEEEE7__allocB8ne180100Ev, symObjAddr: 0x1DD8, symBinAddr: 0x100004EF0, symSize: 0x24 }
  - { offsetInCU: 0x1619E, offset: 0x1619E, size: 0x8, addend: 0x0, symName: __ZNSt3__125__bucket_list_deallocatorINS_9allocatorIPNS_16__hash_node_baseIPNS_11__hash_nodeINS_17__hash_value_typeIiNS_3setIiNS_4lessIiEENS1_IiEEEEEEPvEEEEEEE4sizeB8ne180100Ev, symObjAddr: 0x1DFC, symBinAddr: 0x100004F14, symSize: 0x24 }
  - { offsetInCU: 0x161C4, offset: 0x161C4, size: 0x8, addend: 0x0, symName: __ZNSt3__19allocatorIPNS_16__hash_node_baseIPNS_11__hash_nodeINS_17__hash_value_typeIiNS_3setIiNS_4lessIiEENS0_IiEEEEEEPvEEEEE10deallocateB8ne180100EPSE_m, symObjAddr: 0x1E20, symBinAddr: 0x100004F38, symSize: 0x70 }
  - { offsetInCU: 0x16206, offset: 0x16206, size: 0x8, addend: 0x0, symName: __ZNSt3__117__compressed_pairImNS_9allocatorIPNS_16__hash_node_baseIPNS_11__hash_nodeINS_17__hash_value_typeIiNS_3setIiNS_4lessIiEENS1_IiEEEEEEPvEEEEEEE6secondB8ne180100Ev, symObjAddr: 0x1E90, symBinAddr: 0x100004FA8, symSize: 0x24 }
  - { offsetInCU: 0x1622C, offset: 0x1622C, size: 0x8, addend: 0x0, symName: __ZNSt3__122__compressed_pair_elemINS_9allocatorIPNS_16__hash_node_baseIPNS_11__hash_nodeINS_17__hash_value_typeIiNS_3setIiNS_4lessIiEENS1_IiEEEEEEPvEEEEEELi1ELb1EE5__getB8ne180100Ev, symObjAddr: 0x1EB4, symBinAddr: 0x100004FCC, symSize: 0x14 }
  - { offsetInCU: 0x16252, offset: 0x16252, size: 0x8, addend: 0x0, symName: __ZNSt3__117__compressed_pairImNS_9allocatorIPNS_16__hash_node_baseIPNS_11__hash_nodeINS_17__hash_value_typeIiNS_3setIiNS_4lessIiEENS1_IiEEEEEEPvEEEEEEE5firstB8ne180100Ev, symObjAddr: 0x1EC8, symBinAddr: 0x100004FE0, symSize: 0x24 }
  - { offsetInCU: 0x16278, offset: 0x16278, size: 0x8, addend: 0x0, symName: __ZNSt3__113unordered_mapIiiNS_4hashIiEENS_8equal_toIiEENS_9allocatorINS_4pairIKiiEEEEED2B8ne180100Ev, symObjAddr: 0x1EEC, symBinAddr: 0x100005004, symSize: 0x2C }
  - { offsetInCU: 0x162A2, offset: 0x162A2, size: 0x8, addend: 0x0, symName: __ZNSt3__112__hash_tableINS_17__hash_value_typeIiiEENS_22__unordered_map_hasherIiS2_NS_4hashIiEENS_8equal_toIiEELb1EEENS_21__unordered_map_equalIiS2_S7_S5_Lb1EEENS_9allocatorIS2_EEED1Ev, symObjAddr: 0x1F18, symBinAddr: 0x100005030, symSize: 0x2C }
  - { offsetInCU: 0x162CE, offset: 0x162CE, size: 0x8, addend: 0x0, symName: __ZNSt3__112__hash_tableINS_17__hash_value_typeIiiEENS_22__unordered_map_hasherIiS2_NS_4hashIiEENS_8equal_toIiEELb1EEENS_21__unordered_map_equalIiS2_S7_S5_Lb1EEENS_9allocatorIS2_EEED2Ev, symObjAddr: 0x1F44, symBinAddr: 0x10000505C, symSize: 0x48 }
  - { offsetInCU: 0x162FA, offset: 0x162FA, size: 0x8, addend: 0x0, symName: __ZNSt3__112__hash_tableINS_17__hash_value_typeIiiEENS_22__unordered_map_hasherIiS2_NS_4hashIiEENS_8equal_toIiEELb1EEENS_21__unordered_map_equalIiS2_S7_S5_Lb1EEENS_9allocatorIS2_EEE17__deallocate_nodeEPNS_16__hash_node_baseIPNS_11__hash_nodeIS2_PvEEEE, symObjAddr: 0x1F8C, symBinAddr: 0x1000050A4, symSize: 0xD4 }
  - { offsetInCU: 0x16364, offset: 0x16364, size: 0x8, addend: 0x0, symName: __ZNSt3__117__compressed_pairINS_16__hash_node_baseIPNS_11__hash_nodeINS_17__hash_value_typeIiiEEPvEEEENS_9allocatorIS6_EEE5firstB8ne180100Ev, symObjAddr: 0x2060, symBinAddr: 0x100005178, symSize: 0x24 }
  - { offsetInCU: 0x1638A, offset: 0x1638A, size: 0x8, addend: 0x0, symName: __ZNSt3__112__hash_tableINS_17__hash_value_typeIiiEENS_22__unordered_map_hasherIiS2_NS_4hashIiEENS_8equal_toIiEELb1EEENS_21__unordered_map_equalIiS2_S7_S5_Lb1EEENS_9allocatorIS2_EEE12__node_allocB8ne180100Ev, symObjAddr: 0x2084, symBinAddr: 0x10000519C, symSize: 0x28 }
  - { offsetInCU: 0x163B0, offset: 0x163B0, size: 0x8, addend: 0x0, symName: __ZNSt3__116__hash_node_baseIPNS_11__hash_nodeINS_17__hash_value_typeIiiEEPvEEE8__upcastB8ne180100Ev, symObjAddr: 0x20AC, symBinAddr: 0x1000051C4, symSize: 0x24 }
  - { offsetInCU: 0x163D6, offset: 0x163D6, size: 0x8, addend: 0x0, symName: __ZNSt3__116allocator_traitsINS_9allocatorINS_11__hash_nodeINS_17__hash_value_typeIiiEEPvEEEEE7destroyB8ne180100INS_4pairIKiiEEvvEEvRS7_PT_, symObjAddr: 0x20D0, symBinAddr: 0x1000051E8, symSize: 0x28 }
  - { offsetInCU: 0x16410, offset: 0x16410, size: 0x8, addend: 0x0, symName: __ZNSt3__122__hash_key_value_typesINS_17__hash_value_typeIiiEEE9__get_ptrB8ne180100ERS2_, symObjAddr: 0x20F8, symBinAddr: 0x100005210, symSize: 0x24 }
  - { offsetInCU: 0x16433, offset: 0x16433, size: 0x8, addend: 0x0, symName: __ZNSt3__111__hash_nodeINS_17__hash_value_typeIiiEEPvE11__get_valueB8ne180100Ev, symObjAddr: 0x211C, symBinAddr: 0x100005234, symSize: 0x28 }
  - { offsetInCU: 0x16459, offset: 0x16459, size: 0x8, addend: 0x0, symName: __ZNSt3__116allocator_traitsINS_9allocatorINS_11__hash_nodeINS_17__hash_value_typeIiiEEPvEEEEE10deallocateB8ne180100ERS7_PS6_m, symObjAddr: 0x2168, symBinAddr: 0x100005280, symSize: 0x34 }
  - { offsetInCU: 0x1649B, offset: 0x1649B, size: 0x8, addend: 0x0, symName: __ZNSt3__117__compressed_pairINS_16__hash_node_baseIPNS_11__hash_nodeINS_17__hash_value_typeIiiEEPvEEEENS_9allocatorIS6_EEE6secondB8ne180100Ev, symObjAddr: 0x219C, symBinAddr: 0x1000052B4, symSize: 0x24 }
  - { offsetInCU: 0x164C1, offset: 0x164C1, size: 0x8, addend: 0x0, symName: __ZNSt3__122__compressed_pair_elemINS_9allocatorINS_11__hash_nodeINS_17__hash_value_typeIiiEEPvEEEELi1ELb1EE5__getB8ne180100Ev, symObjAddr: 0x21C0, symBinAddr: 0x1000052D8, symSize: 0x14 }
  - { offsetInCU: 0x164E7, offset: 0x164E7, size: 0x8, addend: 0x0, symName: __ZNSt3__114pointer_traitsIPNS_16__hash_node_baseIPNS_11__hash_nodeINS_17__hash_value_typeIiiEEPvEEEEE10pointer_toB8ne180100ERS8_, symObjAddr: 0x21D4, symBinAddr: 0x1000052EC, symSize: 0x14 }
  - { offsetInCU: 0x1650A, offset: 0x1650A, size: 0x8, addend: 0x0, symName: __ZNSt3__117__hash_value_typeIiiE11__get_valueB8ne180100Ev, symObjAddr: 0x21F8, symBinAddr: 0x100005310, symSize: 0x14 }
  - { offsetInCU: 0x16530, offset: 0x16530, size: 0x8, addend: 0x0, symName: __ZNSt3__111__hash_nodeINS_17__hash_value_typeIiiEEPvED1B8ne180100Ev, symObjAddr: 0x2220, symBinAddr: 0x100005338, symSize: 0x2C }
  - { offsetInCU: 0x1655A, offset: 0x1655A, size: 0x8, addend: 0x0, symName: __ZNSt3__111__hash_nodeINS_17__hash_value_typeIiiEEPvED2B8ne180100Ev, symObjAddr: 0x224C, symBinAddr: 0x100005364, symSize: 0x14 }
  - { offsetInCU: 0x16584, offset: 0x16584, size: 0x8, addend: 0x0, symName: __ZNSt3__19allocatorINS_11__hash_nodeINS_17__hash_value_typeIiiEEPvEEE10deallocateB8ne180100EPS5_m, symObjAddr: 0x2260, symBinAddr: 0x100005378, symSize: 0x74 }
  - { offsetInCU: 0x165C6, offset: 0x165C6, size: 0x8, addend: 0x0, symName: __ZNSt3__122__compressed_pair_elemINS_16__hash_node_baseIPNS_11__hash_nodeINS_17__hash_value_typeIiiEEPvEEEELi0ELb0EE5__getB8ne180100Ev, symObjAddr: 0x22D4, symBinAddr: 0x1000053EC, symSize: 0x14 }
  - { offsetInCU: 0x165EC, offset: 0x165EC, size: 0x8, addend: 0x0, symName: __ZNSt3__16vectorIiNS_9allocatorIiEEED2B8ne180100Ev, symObjAddr: 0x22E8, symBinAddr: 0x100005400, symSize: 0x3C }
  - { offsetInCU: 0x16616, offset: 0x16616, size: 0x8, addend: 0x0, symName: __ZNSt3__16vectorIiNS_9allocatorIiEEE16__destroy_vectorC1B8ne180100ERS3_, symObjAddr: 0x2324, symBinAddr: 0x10000543C, symSize: 0x34 }
  - { offsetInCU: 0x1664F, offset: 0x1664F, size: 0x8, addend: 0x0, symName: __ZNSt3__16vectorIiNS_9allocatorIiEEE16__destroy_vectorclB8ne180100Ev, symObjAddr: 0x2358, symBinAddr: 0x100005470, symSize: 0x90 }
  - { offsetInCU: 0x16675, offset: 0x16675, size: 0x8, addend: 0x0, symName: __ZNSt3__16vectorIiNS_9allocatorIiEEE16__destroy_vectorC2B8ne180100ERS3_, symObjAddr: 0x23E8, symBinAddr: 0x100005500, symSize: 0x20 }
  - { offsetInCU: 0x166AE, offset: 0x166AE, size: 0x8, addend: 0x0, symName: __ZNSt3__16vectorIiNS_9allocatorIiEEE7__clearB8ne180100Ev, symObjAddr: 0x2408, symBinAddr: 0x100005520, symSize: 0x28 }
  - { offsetInCU: 0x166D4, offset: 0x166D4, size: 0x8, addend: 0x0, symName: __ZNKSt3__16vectorIiNS_9allocatorIiEEE17__annotate_deleteB8ne180100Ev, symObjAddr: 0x2430, symBinAddr: 0x100005548, symSize: 0x10 }
  - { offsetInCU: 0x166FA, offset: 0x166FA, size: 0x8, addend: 0x0, symName: __ZNSt3__116allocator_traitsINS_9allocatorIiEEE10deallocateB8ne180100ERS2_Pim, symObjAddr: 0x2440, symBinAddr: 0x100005558, symSize: 0x34 }
  - { offsetInCU: 0x1673C, offset: 0x1673C, size: 0x8, addend: 0x0, symName: __ZNSt3__16vectorIiNS_9allocatorIiEEE7__allocB8ne180100Ev, symObjAddr: 0x2474, symBinAddr: 0x10000558C, symSize: 0x28 }
  - { offsetInCU: 0x16762, offset: 0x16762, size: 0x8, addend: 0x0, symName: __ZNKSt3__16vectorIiNS_9allocatorIiEEE8capacityB8ne180100Ev, symObjAddr: 0x249C, symBinAddr: 0x1000055B4, symSize: 0x40 }
  - { offsetInCU: 0x16788, offset: 0x16788, size: 0x8, addend: 0x0, symName: __ZNSt3__16vectorIiNS_9allocatorIiEEE22__base_destruct_at_endB8ne180100EPi, symObjAddr: 0x24DC, symBinAddr: 0x1000055F4, symSize: 0xA0 }
  - { offsetInCU: 0x167CC, offset: 0x167CC, size: 0x8, addend: 0x0, symName: __ZNSt3__116allocator_traitsINS_9allocatorIiEEE7destroyB8ne180100IivEEvRS2_PT_, symObjAddr: 0x257C, symBinAddr: 0x100005694, symSize: 0x2C }
  - { offsetInCU: 0x16809, offset: 0x16809, size: 0x8, addend: 0x0, symName: __ZNSt3__19allocatorIiE7destroyB8ne180100EPi, symObjAddr: 0x25BC, symBinAddr: 0x1000056D4, symSize: 0x14 }
  - { offsetInCU: 0x1683D, offset: 0x1683D, size: 0x8, addend: 0x0, symName: __ZNSt3__19allocatorIiE10deallocateB8ne180100EPim, symObjAddr: 0x25D0, symBinAddr: 0x1000056E8, symSize: 0x70 }
  - { offsetInCU: 0x1687F, offset: 0x1687F, size: 0x8, addend: 0x0, symName: __ZNSt3__117__compressed_pairIPiNS_9allocatorIiEEE6secondB8ne180100Ev, symObjAddr: 0x2640, symBinAddr: 0x100005758, symSize: 0x24 }
  - { offsetInCU: 0x168A5, offset: 0x168A5, size: 0x8, addend: 0x0, symName: __ZNSt3__122__compressed_pair_elemINS_9allocatorIiEELi1ELb1EE5__getB8ne180100Ev, symObjAddr: 0x2664, symBinAddr: 0x10000577C, symSize: 0x14 }
  - { offsetInCU: 0x168CB, offset: 0x168CB, size: 0x8, addend: 0x0, symName: __ZNKSt3__16vectorIiNS_9allocatorIiEEE9__end_capB8ne180100Ev, symObjAddr: 0x2678, symBinAddr: 0x100005790, symSize: 0x28 }
  - { offsetInCU: 0x168F1, offset: 0x168F1, size: 0x8, addend: 0x0, symName: __ZNKSt3__117__compressed_pairIPiNS_9allocatorIiEEE5firstB8ne180100Ev, symObjAddr: 0x26A0, symBinAddr: 0x1000057B8, symSize: 0x24 }
  - { offsetInCU: 0x16917, offset: 0x16917, size: 0x8, addend: 0x0, symName: __ZNKSt3__122__compressed_pair_elemIPiLi0ELb0EE5__getB8ne180100Ev, symObjAddr: 0x26C4, symBinAddr: 0x1000057DC, symSize: 0x14 }
  - { offsetInCU: 0x1693D, offset: 0x1693D, size: 0x8, addend: 0x0, symName: __ZNKSt3__113unordered_mapIiiNS_4hashIiEENS_8equal_toIiEENS_9allocatorINS_4pairIKiiEEEEE5countB8ne180100ERS7_, symObjAddr: 0x26D8, symBinAddr: 0x1000057F0, symSize: 0x2C }
  - { offsetInCU: 0x16972, offset: 0x16972, size: 0x8, addend: 0x0, symName: __ZNSt3__113unordered_mapIiiNS_4hashIiEENS_8equal_toIiEENS_9allocatorINS_4pairIKiiEEEEEixERS7_, symObjAddr: 0x2704, symBinAddr: 0x10000581C, symSize: 0x128 }
  - { offsetInCU: 0x169D7, offset: 0x169D7, size: 0x8, addend: 0x0, symName: __ZNKSt3__16vectorIiNS_9allocatorIiEEE4sizeB8ne180100Ev, symObjAddr: 0x282C, symBinAddr: 0x100005944, symSize: 0x28 }
  - { offsetInCU: 0x169FD, offset: 0x169FD, size: 0x8, addend: 0x0, symName: __ZNSt3__16vectorIiNS_9allocatorIiEEE9push_backB8ne180100ERKi, symObjAddr: 0x2854, symBinAddr: 0x10000596C, symSize: 0x90 }
  - { offsetInCU: 0x16A43, offset: 0x16A43, size: 0x8, addend: 0x0, symName: __ZNSt3__16vectorIiNS_9allocatorIiEEEixB8ne180100Em, symObjAddr: 0x28E4, symBinAddr: 0x1000059FC, symSize: 0x24 }
  - { offsetInCU: 0x16A7A, offset: 0x16A7A, size: 0x8, addend: 0x0, symName: __ZNSt3__113unordered_mapIiNS_3setIiNS_4lessIiEENS_9allocatorIiEEEENS_4hashIiEENS_8equal_toIiEENS4_INS_4pairIKiS6_EEEEEixERSC_, symObjAddr: 0x2908, symBinAddr: 0x100005A20, symSize: 0x128 }
  - { offsetInCU: 0x16ADF, offset: 0x16ADF, size: 0x8, addend: 0x0, symName: __ZNSt3__13setIiNS_4lessIiEENS_9allocatorIiEEE6insertB8ne180100ERKi, symObjAddr: 0x2A30, symBinAddr: 0x100005B48, symSize: 0x4C }
  - { offsetInCU: 0x16B14, offset: 0x16B14, size: 0x8, addend: 0x0, symName: __ZNKSt3__112__hash_tableINS_17__hash_value_typeIiiEENS_22__unordered_map_hasherIiS2_NS_4hashIiEENS_8equal_toIiEELb1EEENS_21__unordered_map_equalIiS2_S7_S5_Lb1EEENS_9allocatorIS2_EEE14__count_uniqueIiEEmRKT_, symObjAddr: 0x2A7C, symBinAddr: 0x100005B94, symSize: 0x64 }
  - { offsetInCU: 0x16B54, offset: 0x16B54, size: 0x8, addend: 0x0, symName: __ZNKSt3__112__hash_tableINS_17__hash_value_typeIiiEENS_22__unordered_map_hasherIiS2_NS_4hashIiEENS_8equal_toIiEELb1EEENS_21__unordered_map_equalIiS2_S7_S5_Lb1EEENS_9allocatorIS2_EEE4findIiEENS_21__hash_const_iteratorIPNS_11__hash_nodeIS2_PvEEEERKT_, symObjAddr: 0x2B14, symBinAddr: 0x100005C2C, symSize: 0x1B8 }
  - { offsetInCU: 0x16BDE, offset: 0x16BDE, size: 0x8, addend: 0x0, symName: __ZNKSt3__112__hash_tableINS_17__hash_value_typeIiiEENS_22__unordered_map_hasherIiS2_NS_4hashIiEENS_8equal_toIiEELb1EEENS_21__unordered_map_equalIiS2_S7_S5_Lb1EEENS_9allocatorIS2_EEE3endEv, symObjAddr: 0x2CCC, symBinAddr: 0x100005DE4, symSize: 0x2C }
  - { offsetInCU: 0x16C06, offset: 0x16C06, size: 0x8, addend: 0x0, symName: __ZNKSt3__112__hash_tableINS_17__hash_value_typeIiiEENS_22__unordered_map_hasherIiS2_NS_4hashIiEENS_8equal_toIiEELb1EEENS_21__unordered_map_equalIiS2_S7_S5_Lb1EEENS_9allocatorIS2_EEE13hash_functionB8ne180100Ev, symObjAddr: 0x2D28, symBinAddr: 0x100005E40, symSize: 0x28 }
  - { offsetInCU: 0x16C2C, offset: 0x16C2C, size: 0x8, addend: 0x0, symName: __ZNKSt3__122__unordered_map_hasherIiNS_17__hash_value_typeIiiEENS_4hashIiEENS_8equal_toIiEELb1EEclB8ne180100ERKi, symObjAddr: 0x2D50, symBinAddr: 0x100005E68, symSize: 0x30 }
  - { offsetInCU: 0x16C61, offset: 0x16C61, size: 0x8, addend: 0x0, symName: __ZNKSt3__112__hash_tableINS_17__hash_value_typeIiiEENS_22__unordered_map_hasherIiS2_NS_4hashIiEENS_8equal_toIiEELb1EEENS_21__unordered_map_equalIiS2_S7_S5_Lb1EEENS_9allocatorIS2_EEE12bucket_countB8ne180100Ev, symObjAddr: 0x2D80, symBinAddr: 0x100005E98, symSize: 0x28 }
  - { offsetInCU: 0x16C87, offset: 0x16C87, size: 0x8, addend: 0x0, symName: __ZNKSt3__110unique_ptrIA_PNS_16__hash_node_baseIPNS_11__hash_nodeINS_17__hash_value_typeIiiEEPvEEEENS_25__bucket_list_deallocatorINS_9allocatorIS9_EEEEEixB8ne180100Em, symObjAddr: 0x2E40, symBinAddr: 0x100005F58, symSize: 0x34 }
  - { offsetInCU: 0x16CBC, offset: 0x16CBC, size: 0x8, addend: 0x0, symName: __ZNKSt3__116__hash_node_baseIPNS_11__hash_nodeINS_17__hash_value_typeIiiEEPvEEE6__hashB8ne180100Ev, symObjAddr: 0x2E74, symBinAddr: 0x100005F8C, symSize: 0x18 }
  - { offsetInCU: 0x16CE2, offset: 0x16CE2, size: 0x8, addend: 0x0, symName: __ZNKSt3__112__hash_tableINS_17__hash_value_typeIiiEENS_22__unordered_map_hasherIiS2_NS_4hashIiEENS_8equal_toIiEELb1EEENS_21__unordered_map_equalIiS2_S7_S5_Lb1EEENS_9allocatorIS2_EEE6key_eqB8ne180100Ev, symObjAddr: 0x2E8C, symBinAddr: 0x100005FA4, symSize: 0x28 }
  - { offsetInCU: 0x16D08, offset: 0x16D08, size: 0x8, addend: 0x0, symName: __ZNKSt3__121__unordered_map_equalIiNS_17__hash_value_typeIiiEENS_8equal_toIiEENS_4hashIiEELb1EEclB8ne180100ERKS2_RKi, symObjAddr: 0x2EB4, symBinAddr: 0x100005FCC, symSize: 0x48 }
  - { offsetInCU: 0x16D4C, offset: 0x16D4C, size: 0x8, addend: 0x0, symName: __ZNSt3__121__hash_const_iteratorIPNS_11__hash_nodeINS_17__hash_value_typeIiiEEPvEEEC1B8ne180100EPNS_16__hash_node_baseIS6_EE, symObjAddr: 0x2EFC, symBinAddr: 0x100006014, symSize: 0x34 }
  - { offsetInCU: 0x16D85, offset: 0x16D85, size: 0x8, addend: 0x0, symName: __ZNKSt3__117__compressed_pairImNS_22__unordered_map_hasherIiNS_17__hash_value_typeIiiEENS_4hashIiEENS_8equal_toIiEELb1EEEE6secondB8ne180100Ev, symObjAddr: 0x2F30, symBinAddr: 0x100006048, symSize: 0x24 }
  - { offsetInCU: 0x16DAB, offset: 0x16DAB, size: 0x8, addend: 0x0, symName: __ZNKSt3__122__compressed_pair_elemINS_22__unordered_map_hasherIiNS_17__hash_value_typeIiiEENS_4hashIiEENS_8equal_toIiEELb1EEELi1ELb1EE5__getB8ne180100Ev, symObjAddr: 0x2F54, symBinAddr: 0x10000606C, symSize: 0x14 }
  - { offsetInCU: 0x16DD1, offset: 0x16DD1, size: 0x8, addend: 0x0, symName: __ZNKSt3__14hashIiEclB8ne180100Ei, symObjAddr: 0x2F68, symBinAddr: 0x100006080, symSize: 0x18 }
  - { offsetInCU: 0x16E06, offset: 0x16E06, size: 0x8, addend: 0x0, symName: __ZNKSt3__110unique_ptrIA_PNS_16__hash_node_baseIPNS_11__hash_nodeINS_17__hash_value_typeIiiEEPvEEEENS_25__bucket_list_deallocatorINS_9allocatorIS9_EEEEE11get_deleterB8ne180100Ev, symObjAddr: 0x2F80, symBinAddr: 0x100006098, symSize: 0x24 }
  - { offsetInCU: 0x16E2C, offset: 0x16E2C, size: 0x8, addend: 0x0, symName: __ZNKSt3__125__bucket_list_deallocatorINS_9allocatorIPNS_16__hash_node_baseIPNS_11__hash_nodeINS_17__hash_value_typeIiiEEPvEEEEEEE4sizeB8ne180100Ev, symObjAddr: 0x2FA4, symBinAddr: 0x1000060BC, symSize: 0x28 }
  - { offsetInCU: 0x16E52, offset: 0x16E52, size: 0x8, addend: 0x0, symName: __ZNKSt3__117__compressed_pairIPPNS_16__hash_node_baseIPNS_11__hash_nodeINS_17__hash_value_typeIiiEEPvEEEENS_25__bucket_list_deallocatorINS_9allocatorIS9_EEEEE6secondB8ne180100Ev, symObjAddr: 0x2FCC, symBinAddr: 0x1000060E4, symSize: 0x28 }
  - { offsetInCU: 0x16E78, offset: 0x16E78, size: 0x8, addend: 0x0, symName: __ZNKSt3__122__compressed_pair_elemINS_25__bucket_list_deallocatorINS_9allocatorIPNS_16__hash_node_baseIPNS_11__hash_nodeINS_17__hash_value_typeIiiEEPvEEEEEEEELi1ELb0EE5__getB8ne180100Ev, symObjAddr: 0x2FF4, symBinAddr: 0x10000610C, symSize: 0x14 }
  - { offsetInCU: 0x16E9E, offset: 0x16E9E, size: 0x8, addend: 0x0, symName: __ZNKSt3__117__compressed_pairImNS_9allocatorIPNS_16__hash_node_baseIPNS_11__hash_nodeINS_17__hash_value_typeIiiEEPvEEEEEEE5firstB8ne180100Ev, symObjAddr: 0x3008, symBinAddr: 0x100006120, symSize: 0x24 }
  - { offsetInCU: 0x16EC4, offset: 0x16EC4, size: 0x8, addend: 0x0, symName: __ZNKSt3__122__compressed_pair_elemImLi0ELb0EE5__getB8ne180100Ev, symObjAddr: 0x302C, symBinAddr: 0x100006144, symSize: 0x14 }
  - { offsetInCU: 0x16EEA, offset: 0x16EEA, size: 0x8, addend: 0x0, symName: __ZNKSt3__117__compressed_pairIPPNS_16__hash_node_baseIPNS_11__hash_nodeINS_17__hash_value_typeIiiEEPvEEEENS_25__bucket_list_deallocatorINS_9allocatorIS9_EEEEE5firstB8ne180100Ev, symObjAddr: 0x3040, symBinAddr: 0x100006158, symSize: 0x24 }
  - { offsetInCU: 0x16F10, offset: 0x16F10, size: 0x8, addend: 0x0, symName: __ZNKSt3__122__compressed_pair_elemIPPNS_16__hash_node_baseIPNS_11__hash_nodeINS_17__hash_value_typeIiiEEPvEEEELi0ELb0EE5__getB8ne180100Ev, symObjAddr: 0x3064, symBinAddr: 0x10000617C, symSize: 0x14 }
  - { offsetInCU: 0x16F36, offset: 0x16F36, size: 0x8, addend: 0x0, symName: __ZNKSt3__117__compressed_pairIfNS_21__unordered_map_equalIiNS_17__hash_value_typeIiiEENS_8equal_toIiEENS_4hashIiEELb1EEEE6secondB8ne180100Ev, symObjAddr: 0x3078, symBinAddr: 0x100006190, symSize: 0x24 }
  - { offsetInCU: 0x16F5C, offset: 0x16F5C, size: 0x8, addend: 0x0, symName: __ZNKSt3__122__compressed_pair_elemINS_21__unordered_map_equalIiNS_17__hash_value_typeIiiEENS_8equal_toIiEENS_4hashIiEELb1EEELi1ELb1EE5__getB8ne180100Ev, symObjAddr: 0x309C, symBinAddr: 0x1000061B4, symSize: 0x14 }
  - { offsetInCU: 0x16F82, offset: 0x16F82, size: 0x8, addend: 0x0, symName: __ZNKSt3__18equal_toIiEclB8ne180100ERKiS3_, symObjAddr: 0x30B0, symBinAddr: 0x1000061C8, symSize: 0x34 }
  - { offsetInCU: 0x16FC6, offset: 0x16FC6, size: 0x8, addend: 0x0, symName: __ZNKSt3__117__hash_value_typeIiiE11__get_valueB8ne180100Ev, symObjAddr: 0x30E4, symBinAddr: 0x1000061FC, symSize: 0x14 }
  - { offsetInCU: 0x16FEC, offset: 0x16FEC, size: 0x8, addend: 0x0, symName: __ZNSt3__121__hash_const_iteratorIPNS_11__hash_nodeINS_17__hash_value_typeIiiEEPvEEEC2B8ne180100EPNS_16__hash_node_baseIS6_EE, symObjAddr: 0x30F8, symBinAddr: 0x100006210, symSize: 0x20 }
  - { offsetInCU: 0x17025, offset: 0x17025, size: 0x8, addend: 0x0, symName: __ZNSt3__113unordered_mapIiiNS_4hashIiEENS_8equal_toIiEENS_9allocatorINS_4pairIKiiEEEEE4findB8ne180100ERS7_, symObjAddr: 0x3118, symBinAddr: 0x100006230, symSize: 0x40 }
  - { offsetInCU: 0x1705A, offset: 0x1705A, size: 0x8, addend: 0x0, symName: __ZNSt3__113unordered_mapIiiNS_4hashIiEENS_8equal_toIiEENS_9allocatorINS_4pairIKiiEEEEE3endB8ne180100Ev, symObjAddr: 0x3188, symBinAddr: 0x1000062A0, symSize: 0x38 }
  - { offsetInCU: 0x17080, offset: 0x17080, size: 0x8, addend: 0x0, symName: __ZNKSt3__119__hash_map_iteratorINS_15__hash_iteratorIPNS_11__hash_nodeINS_17__hash_value_typeIiiEEPvEEEEEptB8ne180100Ev, symObjAddr: 0x31C0, symBinAddr: 0x1000062D8, symSize: 0x2C }
  - { offsetInCU: 0x170A6, offset: 0x170A6, size: 0x8, addend: 0x0, symName: __ZNSt3__113unordered_mapIiiNS_4hashIiEENS_8equal_toIiEENS_9allocatorINS_4pairIKiiEEEEE25__construct_node_with_keyERS7_, symObjAddr: 0x31EC, symBinAddr: 0x100006304, symSize: 0x144 }
  - { offsetInCU: 0x170FC, offset: 0x170FC, size: 0x8, addend: 0x0, symName: __ZNSt3__112__hash_tableINS_17__hash_value_typeIiiEENS_22__unordered_map_hasherIiS2_NS_4hashIiEENS_8equal_toIiEELb1EEENS_21__unordered_map_equalIiS2_S7_S5_Lb1EEENS_9allocatorIS2_EEE20__node_insert_uniqueEPNS_11__hash_nodeIS2_PvEE, symObjAddr: 0x3330, symBinAddr: 0x100006448, symSize: 0xD8 }
  - { offsetInCU: 0x17151, offset: 0x17151, size: 0x8, addend: 0x0, symName: __ZNKSt3__110unique_ptrINS_11__hash_nodeINS_17__hash_value_typeIiiEEPvEENS_26__hash_map_node_destructorINS_9allocatorIS5_EEEEE3getB8ne180100Ev, symObjAddr: 0x3408, symBinAddr: 0x100006520, symSize: 0x28 }
  - { offsetInCU: 0x17177, offset: 0x17177, size: 0x8, addend: 0x0, symName: __ZNSt3__14pairINS_19__hash_map_iteratorINS_15__hash_iteratorIPNS_11__hash_nodeINS_17__hash_value_typeIiiEEPvEEEEEEbEC1B8ne180100IS9_bEERKNS0_IT_T0_EE, symObjAddr: 0x3430, symBinAddr: 0x100006548, symSize: 0x34 }
  - { offsetInCU: 0x171C1, offset: 0x171C1, size: 0x8, addend: 0x0, symName: __ZNSt3__110unique_ptrINS_11__hash_nodeINS_17__hash_value_typeIiiEEPvEENS_26__hash_map_node_destructorINS_9allocatorIS5_EEEEE7releaseB8ne180100Ev, symObjAddr: 0x3464, symBinAddr: 0x10000657C, symSize: 0x44 }
  - { offsetInCU: 0x171F6, offset: 0x171F6, size: 0x8, addend: 0x0, symName: __ZNSt3__110unique_ptrINS_11__hash_nodeINS_17__hash_value_typeIiiEEPvEENS_26__hash_map_node_destructorINS_9allocatorIS5_EEEEED1B8ne180100Ev, symObjAddr: 0x34A8, symBinAddr: 0x1000065C0, symSize: 0x2C }
  - { offsetInCU: 0x17220, offset: 0x17220, size: 0x8, addend: 0x0, symName: __ZNSt3__112__hash_tableINS_17__hash_value_typeIiiEENS_22__unordered_map_hasherIiS2_NS_4hashIiEENS_8equal_toIiEELb1EEENS_21__unordered_map_equalIiS2_S7_S5_Lb1EEENS_9allocatorIS2_EEE4findIiEENS_15__hash_iteratorIPNS_11__hash_nodeIS2_PvEEEERKT_, symObjAddr: 0x34D4, symBinAddr: 0x1000065EC, symSize: 0x1B0 }
  - { offsetInCU: 0x172AA, offset: 0x172AA, size: 0x8, addend: 0x0, symName: __ZNSt3__119__hash_map_iteratorINS_15__hash_iteratorIPNS_11__hash_nodeINS_17__hash_value_typeIiiEEPvEEEEEC1B8ne180100ES8_, symObjAddr: 0x3684, symBinAddr: 0x10000679C, symSize: 0x34 }
  - { offsetInCU: 0x172E3, offset: 0x172E3, size: 0x8, addend: 0x0, symName: __ZNSt3__112__hash_tableINS_17__hash_value_typeIiiEENS_22__unordered_map_hasherIiS2_NS_4hashIiEENS_8equal_toIiEELb1EEENS_21__unordered_map_equalIiS2_S7_S5_Lb1EEENS_9allocatorIS2_EEE13hash_functionB8ne180100Ev, symObjAddr: 0x36B8, symBinAddr: 0x1000067D0, symSize: 0x28 }
  - { offsetInCU: 0x17309, offset: 0x17309, size: 0x8, addend: 0x0, symName: __ZNSt3__112__hash_tableINS_17__hash_value_typeIiiEENS_22__unordered_map_hasherIiS2_NS_4hashIiEENS_8equal_toIiEELb1EEENS_21__unordered_map_equalIiS2_S7_S5_Lb1EEENS_9allocatorIS2_EEE6key_eqB8ne180100Ev, symObjAddr: 0x36E0, symBinAddr: 0x1000067F8, symSize: 0x28 }
  - { offsetInCU: 0x1732F, offset: 0x1732F, size: 0x8, addend: 0x0, symName: __ZNSt3__115__hash_iteratorIPNS_11__hash_nodeINS_17__hash_value_typeIiiEEPvEEEC1B8ne180100EPNS_16__hash_node_baseIS6_EE, symObjAddr: 0x3708, symBinAddr: 0x100006820, symSize: 0x34 }
  - { offsetInCU: 0x17368, offset: 0x17368, size: 0x8, addend: 0x0, symName: __ZNSt3__112__hash_tableINS_17__hash_value_typeIiiEENS_22__unordered_map_hasherIiS2_NS_4hashIiEENS_8equal_toIiEELb1EEENS_21__unordered_map_equalIiS2_S7_S5_Lb1EEENS_9allocatorIS2_EEE3endEv, symObjAddr: 0x373C, symBinAddr: 0x100006854, symSize: 0x2C }
  - { offsetInCU: 0x17390, offset: 0x17390, size: 0x8, addend: 0x0, symName: __ZNSt3__117__compressed_pairImNS_22__unordered_map_hasherIiNS_17__hash_value_typeIiiEENS_4hashIiEENS_8equal_toIiEELb1EEEE6secondB8ne180100Ev, symObjAddr: 0x3768, symBinAddr: 0x100006880, symSize: 0x24 }
  - { offsetInCU: 0x173B6, offset: 0x173B6, size: 0x8, addend: 0x0, symName: __ZNSt3__122__compressed_pair_elemINS_22__unordered_map_hasherIiNS_17__hash_value_typeIiiEENS_4hashIiEENS_8equal_toIiEELb1EEELi1ELb1EE5__getB8ne180100Ev, symObjAddr: 0x378C, symBinAddr: 0x1000068A4, symSize: 0x14 }
  - { offsetInCU: 0x173DC, offset: 0x173DC, size: 0x8, addend: 0x0, symName: __ZNSt3__117__compressed_pairIfNS_21__unordered_map_equalIiNS_17__hash_value_typeIiiEENS_8equal_toIiEENS_4hashIiEELb1EEEE6secondB8ne180100Ev, symObjAddr: 0x37A0, symBinAddr: 0x1000068B8, symSize: 0x24 }
  - { offsetInCU: 0x17402, offset: 0x17402, size: 0x8, addend: 0x0, symName: __ZNSt3__122__compressed_pair_elemINS_21__unordered_map_equalIiNS_17__hash_value_typeIiiEENS_8equal_toIiEENS_4hashIiEELb1EEELi1ELb1EE5__getB8ne180100Ev, symObjAddr: 0x37C4, symBinAddr: 0x1000068DC, symSize: 0x14 }
  - { offsetInCU: 0x17428, offset: 0x17428, size: 0x8, addend: 0x0, symName: __ZNSt3__115__hash_iteratorIPNS_11__hash_nodeINS_17__hash_value_typeIiiEEPvEEEC2B8ne180100EPNS_16__hash_node_baseIS6_EE, symObjAddr: 0x37D8, symBinAddr: 0x1000068F0, symSize: 0x20 }
  - { offsetInCU: 0x17461, offset: 0x17461, size: 0x8, addend: 0x0, symName: __ZNSt3__119__hash_map_iteratorINS_15__hash_iteratorIPNS_11__hash_nodeINS_17__hash_value_typeIiiEEPvEEEEEC2B8ne180100ES8_, symObjAddr: 0x37F8, symBinAddr: 0x100006910, symSize: 0x20 }
  - { offsetInCU: 0x1749A, offset: 0x1749A, size: 0x8, addend: 0x0, symName: __ZNSt3__114pointer_traitsIPNS_4pairIKiiEEE10pointer_toB8ne180100ERS3_, symObjAddr: 0x387C, symBinAddr: 0x100006994, symSize: 0x14 }
  - { offsetInCU: 0x174BD, offset: 0x174BD, size: 0x8, addend: 0x0, symName: __ZNKSt3__115__hash_iteratorIPNS_11__hash_nodeINS_17__hash_value_typeIiiEEPvEEEptB8ne180100Ev, symObjAddr: 0x3890, symBinAddr: 0x1000069A8, symSize: 0x30 }
  - { offsetInCU: 0x174E3, offset: 0x174E3, size: 0x8, addend: 0x0, symName: __ZNSt3__114pointer_traitsIPNS_17__hash_value_typeIiiEEE10pointer_toB8ne180100ERS2_, symObjAddr: 0x38C0, symBinAddr: 0x1000069D8, symSize: 0x14 }
  - { offsetInCU: 0x17506, offset: 0x17506, size: 0x8, addend: 0x0, symName: __ZNSt3__116allocator_traitsINS_9allocatorINS_11__hash_nodeINS_17__hash_value_typeIiiEEPvEEEEE8allocateB8ne180100ERS7_m, symObjAddr: 0x38D4, symBinAddr: 0x1000069EC, symSize: 0x2C }
  - { offsetInCU: 0x17539, offset: 0x17539, size: 0x8, addend: 0x0, symName: __ZNSt3__126__hash_map_node_destructorINS_9allocatorINS_11__hash_nodeINS_17__hash_value_typeIiiEEPvEEEEEC1B8ne180100ERS7_, symObjAddr: 0x3900, symBinAddr: 0x100006A18, symSize: 0x34 }
  - { offsetInCU: 0x17577, offset: 0x17577, size: 0x8, addend: 0x0, symName: __ZNSt3__110unique_ptrINS_11__hash_nodeINS_17__hash_value_typeIiiEEPvEENS_26__hash_map_node_destructorINS_9allocatorIS5_EEEEEC1B8ne180100ILb1EvEEPS5_NS_16__dependent_typeINS_27__unique_ptr_deleter_sfinaeIS9_EEXT_EE20__good_rval_ref_typeE, symObjAddr: 0x3934, symBinAddr: 0x100006A4C, symSize: 0x3C }
  - { offsetInCU: 0x175C8, offset: 0x175C8, size: 0x8, addend: 0x0, symName: __ZNSt3__116allocator_traitsINS_9allocatorINS_11__hash_nodeINS_17__hash_value_typeIiiEEPvEEEEE9constructB8ne180100IKiJRSA_EvEEvRS7_PT_DpOT0_, symObjAddr: 0x3970, symBinAddr: 0x100006A88, symSize: 0x34 }
  - { offsetInCU: 0x1761F, offset: 0x1761F, size: 0x8, addend: 0x0, symName: __ZNKSt3__110unique_ptrINS_11__hash_nodeINS_17__hash_value_typeIiiEEPvEENS_26__hash_map_node_destructorINS_9allocatorIS5_EEEEEptB8ne180100Ev, symObjAddr: 0x39A4, symBinAddr: 0x100006ABC, symSize: 0x28 }
  - { offsetInCU: 0x17645, offset: 0x17645, size: 0x8, addend: 0x0, symName: __ZNSt3__110unique_ptrINS_11__hash_nodeINS_17__hash_value_typeIiiEEPvEENS_26__hash_map_node_destructorINS_9allocatorIS5_EEEEE11get_deleterB8ne180100Ev, symObjAddr: 0x39CC, symBinAddr: 0x100006AE4, symSize: 0x24 }
  - { offsetInCU: 0x1766B, offset: 0x1766B, size: 0x8, addend: 0x0, symName: __ZNSt3__116allocator_traitsINS_9allocatorINS_11__hash_nodeINS_17__hash_value_typeIiiEEPvEEEEE9constructB8ne180100IiJEvEEvRS7_PT_DpOT0_, symObjAddr: 0x39F0, symBinAddr: 0x100006B08, symSize: 0x2C }
  - { offsetInCU: 0x176AD, offset: 0x176AD, size: 0x8, addend: 0x0, symName: __ZNSt3__19allocatorINS_11__hash_nodeINS_17__hash_value_typeIiiEEPvEEE8allocateB8ne180100Em, symObjAddr: 0x3A1C, symBinAddr: 0x100006B34, symSize: 0x8C }
  - { offsetInCU: 0x176EB, offset: 0x176EB, size: 0x8, addend: 0x0, symName: __ZNSt3__116allocator_traitsINS_9allocatorINS_11__hash_nodeINS_17__hash_value_typeIiiEEPvEEEEE8max_sizeB8ne180100IS7_vEEmRKS7_, symObjAddr: 0x3AA8, symBinAddr: 0x100006BC0, symSize: 0x24 }
  - { offsetInCU: 0x17719, offset: 0x17719, size: 0x8, addend: 0x0, symName: __ZNKSt3__19allocatorINS_11__hash_nodeINS_17__hash_value_typeIiiEEPvEEE8max_sizeB8ne180100Ev, symObjAddr: 0x3B28, symBinAddr: 0x100006C40, symSize: 0x18 }
  - { offsetInCU: 0x1773F, offset: 0x1773F, size: 0x8, addend: 0x0, symName: __ZNSt3__126__hash_map_node_destructorINS_9allocatorINS_11__hash_nodeINS_17__hash_value_typeIiiEEPvEEEEEC2B8ne180100ERS7_, symObjAddr: 0x3B64, symBinAddr: 0x100006C7C, symSize: 0x28 }
  - { offsetInCU: 0x17778, offset: 0x17778, size: 0x8, addend: 0x0, symName: __ZNSt3__110unique_ptrINS_11__hash_nodeINS_17__hash_value_typeIiiEEPvEENS_26__hash_map_node_destructorINS_9allocatorIS5_EEEEEC2B8ne180100ILb1EvEEPS5_NS_16__dependent_typeINS_27__unique_ptr_deleter_sfinaeIS9_EEXT_EE20__good_rval_ref_typeE, symObjAddr: 0x3B8C, symBinAddr: 0x100006CA4, symSize: 0x5C }
  - { offsetInCU: 0x177C9, offset: 0x177C9, size: 0x8, addend: 0x0, symName: __ZNSt3__117__compressed_pairIPNS_11__hash_nodeINS_17__hash_value_typeIiiEEPvEENS_26__hash_map_node_destructorINS_9allocatorIS5_EEEEEC1B8ne180100IRS6_SA_EEOT_OT0_, symObjAddr: 0x3BE8, symBinAddr: 0x100006D00, symSize: 0x3C }
  - { offsetInCU: 0x17821, offset: 0x17821, size: 0x8, addend: 0x0, symName: __ZNSt3__117__compressed_pairIPNS_11__hash_nodeINS_17__hash_value_typeIiiEEPvEENS_26__hash_map_node_destructorINS_9allocatorIS5_EEEEEC2B8ne180100IRS6_SA_EEOT_OT0_, symObjAddr: 0x3C24, symBinAddr: 0x100006D3C, symSize: 0x48 }
  - { offsetInCU: 0x17879, offset: 0x17879, size: 0x8, addend: 0x0, symName: __ZNSt3__122__compressed_pair_elemIPNS_11__hash_nodeINS_17__hash_value_typeIiiEEPvEELi0ELb0EEC2B8ne180100IRS6_vEEOT_, symObjAddr: 0x3C6C, symBinAddr: 0x100006D84, symSize: 0x24 }
  - { offsetInCU: 0x178BB, offset: 0x178BB, size: 0x8, addend: 0x0, symName: __ZNSt3__122__compressed_pair_elemINS_26__hash_map_node_destructorINS_9allocatorINS_11__hash_nodeINS_17__hash_value_typeIiiEEPvEEEEEELi1ELb0EEC2B8ne180100IS9_vEEOT_, symObjAddr: 0x3C90, symBinAddr: 0x100006DA8, symSize: 0x24 }
  - { offsetInCU: 0x178FD, offset: 0x178FD, size: 0x8, addend: 0x0, symName: __ZNSt3__19allocatorINS_11__hash_nodeINS_17__hash_value_typeIiiEEPvEEE9constructB8ne180100IKiJRS8_EEEvPT_DpOT0_, symObjAddr: 0x3CB4, symBinAddr: 0x100006DCC, symSize: 0x28 }
  - { offsetInCU: 0x17953, offset: 0x17953, size: 0x8, addend: 0x0, symName: __ZNKSt3__117__compressed_pairIPNS_11__hash_nodeINS_17__hash_value_typeIiiEEPvEENS_26__hash_map_node_destructorINS_9allocatorIS5_EEEEE5firstB8ne180100Ev, symObjAddr: 0x3CDC, symBinAddr: 0x100006DF4, symSize: 0x24 }
  - { offsetInCU: 0x17979, offset: 0x17979, size: 0x8, addend: 0x0, symName: __ZNKSt3__122__compressed_pair_elemIPNS_11__hash_nodeINS_17__hash_value_typeIiiEEPvEELi0ELb0EE5__getB8ne180100Ev, symObjAddr: 0x3D00, symBinAddr: 0x100006E18, symSize: 0x14 }
  - { offsetInCU: 0x1799F, offset: 0x1799F, size: 0x8, addend: 0x0, symName: __ZNSt3__117__compressed_pairIPNS_11__hash_nodeINS_17__hash_value_typeIiiEEPvEENS_26__hash_map_node_destructorINS_9allocatorIS5_EEEEE6secondB8ne180100Ev, symObjAddr: 0x3D14, symBinAddr: 0x100006E2C, symSize: 0x28 }
  - { offsetInCU: 0x179C5, offset: 0x179C5, size: 0x8, addend: 0x0, symName: __ZNSt3__122__compressed_pair_elemINS_26__hash_map_node_destructorINS_9allocatorINS_11__hash_nodeINS_17__hash_value_typeIiiEEPvEEEEEELi1ELb0EE5__getB8ne180100Ev, symObjAddr: 0x3D3C, symBinAddr: 0x100006E54, symSize: 0x14 }
  - { offsetInCU: 0x179EB, offset: 0x179EB, size: 0x8, addend: 0x0, symName: __ZNSt3__19allocatorINS_11__hash_nodeINS_17__hash_value_typeIiiEEPvEEE9constructB8ne180100IiJEEEvPT_DpOT0_, symObjAddr: 0x3D50, symBinAddr: 0x100006E68, symSize: 0x1C }
  - { offsetInCU: 0x17A2D, offset: 0x17A2D, size: 0x8, addend: 0x0, symName: __ZNKSt3__122__unordered_map_hasherIiNS_17__hash_value_typeIiiEENS_4hashIiEENS_8equal_toIiEELb1EEclB8ne180100ERKS2_, symObjAddr: 0x3D6C, symBinAddr: 0x100006E84, symSize: 0x40 }
  - { offsetInCU: 0x17A62, offset: 0x17A62, size: 0x8, addend: 0x0, symName: __ZNSt3__112__hash_tableINS_17__hash_value_typeIiiEENS_22__unordered_map_hasherIiS2_NS_4hashIiEENS_8equal_toIiEELb1EEENS_21__unordered_map_equalIiS2_S7_S5_Lb1EEENS_9allocatorIS2_EEE28__node_insert_unique_prepareB8ne180100EmRS2_, symObjAddr: 0x3DAC, symBinAddr: 0x100006EC4, symSize: 0x290 }
  - { offsetInCU: 0x17AE3, offset: 0x17AE3, size: 0x8, addend: 0x0, symName: __ZNSt3__112__hash_tableINS_17__hash_value_typeIiiEENS_22__unordered_map_hasherIiS2_NS_4hashIiEENS_8equal_toIiEELb1EEENS_21__unordered_map_equalIiS2_S7_S5_Lb1EEENS_9allocatorIS2_EEE28__node_insert_unique_performB8ne180100EPNS_11__hash_nodeIS2_PvEE, symObjAddr: 0x403C, symBinAddr: 0x100007154, symSize: 0x154 }
  - { offsetInCU: 0x17B47, offset: 0x17B47, size: 0x8, addend: 0x0, symName: __ZNSt3__116__hash_node_baseIPNS_11__hash_nodeINS_17__hash_value_typeIiiEEPvEEE5__ptrB8ne180100Ev, symObjAddr: 0x4190, symBinAddr: 0x1000072A8, symSize: 0x24 }
  - { offsetInCU: 0x17B6D, offset: 0x17B6D, size: 0x8, addend: 0x0, symName: __ZNSt3__14pairINS_15__hash_iteratorIPNS_11__hash_nodeINS_17__hash_value_typeIiiEEPvEEEEbEC1B8ne180100ERKS8_RKb, symObjAddr: 0x41B4, symBinAddr: 0x1000072CC, symSize: 0x3C }
  - { offsetInCU: 0x17BB3, offset: 0x17BB3, size: 0x8, addend: 0x0, symName: __ZNKSt3__121__unordered_map_equalIiNS_17__hash_value_typeIiiEENS_8equal_toIiEENS_4hashIiEELb1EEclB8ne180100ERKS2_S9_, symObjAddr: 0x41F0, symBinAddr: 0x100007308, symSize: 0x54 }
  - { offsetInCU: 0x17BF7, offset: 0x17BF7, size: 0x8, addend: 0x0, symName: __ZNSt3__112__hash_tableINS_17__hash_value_typeIiiEENS_22__unordered_map_hasherIiS2_NS_4hashIiEENS_8equal_toIiEELb1EEENS_21__unordered_map_equalIiS2_S7_S5_Lb1EEENS_9allocatorIS2_EEE4sizeB8ne180100Ev, symObjAddr: 0x4244, symBinAddr: 0x10000735C, symSize: 0x28 }
  - { offsetInCU: 0x17C1D, offset: 0x17C1D, size: 0x8, addend: 0x0, symName: __ZNSt3__112__hash_tableINS_17__hash_value_typeIiiEENS_22__unordered_map_hasherIiS2_NS_4hashIiEENS_8equal_toIiEELb1EEENS_21__unordered_map_equalIiS2_S7_S5_Lb1EEENS_9allocatorIS2_EEE15max_load_factorB8ne180100Ev, symObjAddr: 0x426C, symBinAddr: 0x100007384, symSize: 0x28 }
  - { offsetInCU: 0x17C43, offset: 0x17C43, size: 0x8, addend: 0x0, symName: __ZNSt3__112__hash_tableINS_17__hash_value_typeIiiEENS_22__unordered_map_hasherIiS2_NS_4hashIiEENS_8equal_toIiEELb1EEENS_21__unordered_map_equalIiS2_S7_S5_Lb1EEENS_9allocatorIS2_EEE15__rehash_uniqueB8ne180100Em, symObjAddr: 0x4294, symBinAddr: 0x1000073AC, symSize: 0x2C }
  - { offsetInCU: 0x17C78, offset: 0x17C78, size: 0x8, addend: 0x0, symName: __ZNSt3__117__compressed_pairImNS_22__unordered_map_hasherIiNS_17__hash_value_typeIiiEENS_4hashIiEENS_8equal_toIiEELb1EEEE5firstB8ne180100Ev, symObjAddr: 0x4354, symBinAddr: 0x10000746C, symSize: 0x24 }
  - { offsetInCU: 0x17C9E, offset: 0x17C9E, size: 0x8, addend: 0x0, symName: __ZNSt3__117__compressed_pairIfNS_21__unordered_map_equalIiNS_17__hash_value_typeIiiEENS_8equal_toIiEENS_4hashIiEELb1EEEE5firstB8ne180100Ev, symObjAddr: 0x4378, symBinAddr: 0x100007490, symSize: 0x24 }
  - { offsetInCU: 0x17CC4, offset: 0x17CC4, size: 0x8, addend: 0x0, symName: __ZNSt3__122__compressed_pair_elemIfLi0ELb0EE5__getB8ne180100Ev, symObjAddr: 0x439C, symBinAddr: 0x1000074B4, symSize: 0x14 }
  - { offsetInCU: 0x17CEA, offset: 0x17CEA, size: 0x8, addend: 0x0, symName: __ZNSt3__112__hash_tableINS_17__hash_value_typeIiiEENS_22__unordered_map_hasherIiS2_NS_4hashIiEENS_8equal_toIiEELb1EEENS_21__unordered_map_equalIiS2_S7_S5_Lb1EEENS_9allocatorIS2_EEE8__rehashILb1EEEvm, symObjAddr: 0x43B0, symBinAddr: 0x1000074C8, symSize: 0x1A8 }
  - { offsetInCU: 0x17D3A, offset: 0x17D3A, size: 0x8, addend: 0x0, symName: __ZNSt3__112__hash_tableINS_17__hash_value_typeIiiEENS_22__unordered_map_hasherIiS2_NS_4hashIiEENS_8equal_toIiEELb1EEENS_21__unordered_map_equalIiS2_S7_S5_Lb1EEENS_9allocatorIS2_EEE11__do_rehashILb1EEEvm, symObjAddr: 0x4558, symBinAddr: 0x100007670, symSize: 0x288 }
  - { offsetInCU: 0x17E1D, offset: 0x17E1D, size: 0x8, addend: 0x0, symName: __ZNSt3__110unique_ptrIA_PNS_16__hash_node_baseIPNS_11__hash_nodeINS_17__hash_value_typeIiiEEPvEEEENS_25__bucket_list_deallocatorINS_9allocatorIS9_EEEEE11get_deleterB8ne180100Ev, symObjAddr: 0x484C, symBinAddr: 0x100007964, symSize: 0x24 }
  - { offsetInCU: 0x17E43, offset: 0x17E43, size: 0x8, addend: 0x0, symName: __ZNSt3__110unique_ptrIA_PNS_16__hash_node_baseIPNS_11__hash_nodeINS_17__hash_value_typeIiiEEPvEEEENS_25__bucket_list_deallocatorINS_9allocatorIS9_EEEEE5resetB8ne180100IPS9_Li0EEEvT_, symObjAddr: 0x4870, symBinAddr: 0x100007988, symSize: 0x78 }
  - { offsetInCU: 0x17E96, offset: 0x17E96, size: 0x8, addend: 0x0, symName: __ZNSt3__116allocator_traitsINS_9allocatorIPNS_16__hash_node_baseIPNS_11__hash_nodeINS_17__hash_value_typeIiiEEPvEEEEEEE8allocateB8ne180100ERSB_m, symObjAddr: 0x48E8, symBinAddr: 0x100007A00, symSize: 0x2C }
  - { offsetInCU: 0x17EC9, offset: 0x17EC9, size: 0x8, addend: 0x0, symName: __ZNSt3__19allocatorIPNS_16__hash_node_baseIPNS_11__hash_nodeINS_17__hash_value_typeIiiEEPvEEEEE8allocateB8ne180100Em, symObjAddr: 0x4914, symBinAddr: 0x100007A2C, symSize: 0x84 }
  - { offsetInCU: 0x17F07, offset: 0x17F07, size: 0x8, addend: 0x0, symName: __ZNSt3__116allocator_traitsINS_9allocatorIPNS_16__hash_node_baseIPNS_11__hash_nodeINS_17__hash_value_typeIiiEEPvEEEEEEE8max_sizeB8ne180100ISB_vEEmRKSB_, symObjAddr: 0x4998, symBinAddr: 0x100007AB0, symSize: 0x24 }
  - { offsetInCU: 0x17F35, offset: 0x17F35, size: 0x8, addend: 0x0, symName: __ZNKSt3__19allocatorIPNS_16__hash_node_baseIPNS_11__hash_nodeINS_17__hash_value_typeIiiEEPvEEEEE8max_sizeB8ne180100Ev, symObjAddr: 0x49BC, symBinAddr: 0x100007AD4, symSize: 0x14 }
  - { offsetInCU: 0x17F65, offset: 0x17F65, size: 0x8, addend: 0x0, symName: __ZNKSt3__16__lessIvvEclB8ne180100ImmEEbRKT_RKT0_, symObjAddr: 0x4A40, symBinAddr: 0x100007B58, symSize: 0x34 }
  - { offsetInCU: 0x17FB9, offset: 0x17FB9, size: 0x8, addend: 0x0, symName: __ZNSt3__14pairINS_15__hash_iteratorIPNS_11__hash_nodeINS_17__hash_value_typeIiiEEPvEEEEbEC2B8ne180100ERKS8_RKb, symObjAddr: 0x4A74, symBinAddr: 0x100007B8C, symSize: 0x38 }
  - { offsetInCU: 0x17FFF, offset: 0x17FFF, size: 0x8, addend: 0x0, symName: __ZNSt3__14pairINS_19__hash_map_iteratorINS_15__hash_iteratorIPNS_11__hash_nodeINS_17__hash_value_typeIiiEEPvEEEEEEbEC2B8ne180100IS9_bEERKNS0_IT_T0_EE, symObjAddr: 0x4AAC, symBinAddr: 0x100007BC4, symSize: 0x50 }
  - { offsetInCU: 0x18049, offset: 0x18049, size: 0x8, addend: 0x0, symName: __ZNSt3__117__compressed_pairIPNS_11__hash_nodeINS_17__hash_value_typeIiiEEPvEENS_26__hash_map_node_destructorINS_9allocatorIS5_EEEEE5firstB8ne180100Ev, symObjAddr: 0x4AFC, symBinAddr: 0x100007C14, symSize: 0x24 }
  - { offsetInCU: 0x1806F, offset: 0x1806F, size: 0x8, addend: 0x0, symName: __ZNSt3__122__compressed_pair_elemIPNS_11__hash_nodeINS_17__hash_value_typeIiiEEPvEELi0ELb0EE5__getB8ne180100Ev, symObjAddr: 0x4B20, symBinAddr: 0x100007C38, symSize: 0x14 }
  - { offsetInCU: 0x18095, offset: 0x18095, size: 0x8, addend: 0x0, symName: __ZNSt3__110unique_ptrINS_11__hash_nodeINS_17__hash_value_typeIiiEEPvEENS_26__hash_map_node_destructorINS_9allocatorIS5_EEEEED2B8ne180100Ev, symObjAddr: 0x4B34, symBinAddr: 0x100007C4C, symSize: 0x30 }
  - { offsetInCU: 0x180BF, offset: 0x180BF, size: 0x8, addend: 0x0, symName: __ZNSt3__110unique_ptrINS_11__hash_nodeINS_17__hash_value_typeIiiEEPvEENS_26__hash_map_node_destructorINS_9allocatorIS5_EEEEE5resetB8ne180100EPS5_, symObjAddr: 0x4B64, symBinAddr: 0x100007C7C, symSize: 0x78 }
  - { offsetInCU: 0x18103, offset: 0x18103, size: 0x8, addend: 0x0, symName: __ZNSt3__126__hash_map_node_destructorINS_9allocatorINS_11__hash_nodeINS_17__hash_value_typeIiiEEPvEEEEEclB8ne180100EPS6_, symObjAddr: 0x4BDC, symBinAddr: 0x100007CF4, symSize: 0xE4 }
  - { offsetInCU: 0x18138, offset: 0x18138, size: 0x8, addend: 0x0, symName: __ZNSt3__116allocator_traitsINS_9allocatorINS_11__hash_nodeINS_17__hash_value_typeIiiEEPvEEEEE7destroyB8ne180100IivvEEvRS7_PT_, symObjAddr: 0x4CC0, symBinAddr: 0x100007DD8, symSize: 0x28 }
  - { offsetInCU: 0x18172, offset: 0x18172, size: 0x8, addend: 0x0, symName: __ZNSt3__116allocator_traitsINS_9allocatorINS_11__hash_nodeINS_17__hash_value_typeIiiEEPvEEEEE7destroyB8ne180100IKivvEEvRS7_PT_, symObjAddr: 0x4CE8, symBinAddr: 0x100007E00, symSize: 0x28 }
  - { offsetInCU: 0x181AC, offset: 0x181AC, size: 0x8, addend: 0x0, symName: __ZNSt3__16vectorIiNS_9allocatorIiEEE9__end_capB8ne180100Ev, symObjAddr: 0x4D30, symBinAddr: 0x100007E48, symSize: 0x28 }
  - { offsetInCU: 0x181D2, offset: 0x181D2, size: 0x8, addend: 0x0, symName: __ZNSt3__16vectorIiNS_9allocatorIiEEE22__construct_one_at_endB8ne180100IJRKiEEEvDpOT_, symObjAddr: 0x4D58, symBinAddr: 0x100007E70, symSize: 0x98 }
  - { offsetInCU: 0x18221, offset: 0x18221, size: 0x8, addend: 0x0, symName: __ZNSt3__16vectorIiNS_9allocatorIiEEE21__push_back_slow_pathIRKiEEPiOT_, symObjAddr: 0x4DF0, symBinAddr: 0x100007F08, symSize: 0xF0 }
  - { offsetInCU: 0x1827F, offset: 0x1827F, size: 0x8, addend: 0x0, symName: __ZNSt3__117__compressed_pairIPiNS_9allocatorIiEEE5firstB8ne180100Ev, symObjAddr: 0x4EE0, symBinAddr: 0x100007FF8, symSize: 0x24 }
  - { offsetInCU: 0x182A5, offset: 0x182A5, size: 0x8, addend: 0x0, symName: __ZNSt3__122__compressed_pair_elemIPiLi0ELb0EE5__getB8ne180100Ev, symObjAddr: 0x4F04, symBinAddr: 0x10000801C, symSize: 0x14 }
  - { offsetInCU: 0x182E4, offset: 0x182E4, size: 0x8, addend: 0x0, symName: __ZNSt3__16vectorIiNS_9allocatorIiEEE21_ConstructTransactionC1B8ne180100ERS3_m, symObjAddr: 0x4F18, symBinAddr: 0x100008030, symSize: 0x3C }
  - { offsetInCU: 0x1832C, offset: 0x1832C, size: 0x8, addend: 0x0, symName: __ZNSt3__116allocator_traitsINS_9allocatorIiEEE9constructB8ne180100IiJRKiEvEEvRS2_PT_DpOT0_, symObjAddr: 0x4F54, symBinAddr: 0x10000806C, symSize: 0x34 }
  - { offsetInCU: 0x18383, offset: 0x18383, size: 0x8, addend: 0x0, symName: __ZNSt3__16vectorIiNS_9allocatorIiEEE21_ConstructTransactionD1B8ne180100Ev, symObjAddr: 0x4F88, symBinAddr: 0x1000080A0, symSize: 0x2C }
  - { offsetInCU: 0x183AD, offset: 0x183AD, size: 0x8, addend: 0x0, symName: __ZNSt3__16vectorIiNS_9allocatorIiEEE21_ConstructTransactionC2B8ne180100ERS3_m, symObjAddr: 0x4FB4, symBinAddr: 0x1000080CC, symSize: 0x44 }
  - { offsetInCU: 0x183F5, offset: 0x183F5, size: 0x8, addend: 0x0, symName: __ZNSt3__19allocatorIiE9constructB8ne180100IiJRKiEEEvPT_DpOT0_, symObjAddr: 0x4FF8, symBinAddr: 0x100008110, symSize: 0x28 }
  - { offsetInCU: 0x1844B, offset: 0x1844B, size: 0x8, addend: 0x0, symName: __ZNSt3__16vectorIiNS_9allocatorIiEEE21_ConstructTransactionD2B8ne180100Ev, symObjAddr: 0x5020, symBinAddr: 0x100008138, symSize: 0x20 }
  - { offsetInCU: 0x18475, offset: 0x18475, size: 0x8, addend: 0x0, symName: __ZNKSt3__16vectorIiNS_9allocatorIiEEE11__recommendB8ne180100Em, symObjAddr: 0x5040, symBinAddr: 0x100008158, symSize: 0xB4 }
  - { offsetInCU: 0x184CA, offset: 0x184CA, size: 0x8, addend: 0x0, symName: __ZNSt3__114__split_bufferIiRNS_9allocatorIiEEEC1EmmS3_, symObjAddr: 0x50F4, symBinAddr: 0x10000820C, symSize: 0x44 }
  - { offsetInCU: 0x18520, offset: 0x18520, size: 0x8, addend: 0x0, symName: __ZNSt3__114__split_bufferIiRNS_9allocatorIiEEED1Ev, symObjAddr: 0x5248, symBinAddr: 0x100008360, symSize: 0x2C }
  - { offsetInCU: 0x1854C, offset: 0x1854C, size: 0x8, addend: 0x0, symName: __ZNKSt3__16vectorIiNS_9allocatorIiEEE8max_sizeEv, symObjAddr: 0x5274, symBinAddr: 0x10000838C, symSize: 0x74 }
  - { offsetInCU: 0x18574, offset: 0x18574, size: 0x8, addend: 0x0, symName: __ZNKSt3__16vectorIiNS_9allocatorIiEEE20__throw_length_errorB8ne180100Ev, symObjAddr: 0x52E8, symBinAddr: 0x100008400, symSize: 0x1C }
  - { offsetInCU: 0x185A4, offset: 0x185A4, size: 0x8, addend: 0x0, symName: __ZNSt3__116allocator_traitsINS_9allocatorIiEEE8max_sizeB8ne180100IS2_vEEmRKS2_, symObjAddr: 0x5330, symBinAddr: 0x100008448, symSize: 0x24 }
  - { offsetInCU: 0x185D2, offset: 0x185D2, size: 0x8, addend: 0x0, symName: __ZNKSt3__16vectorIiNS_9allocatorIiEEE7__allocB8ne180100Ev, symObjAddr: 0x5354, symBinAddr: 0x10000846C, symSize: 0x28 }
  - { offsetInCU: 0x185F8, offset: 0x185F8, size: 0x8, addend: 0x0, symName: __ZNSt3__114numeric_limitsIlE3maxB8ne180100Ev, symObjAddr: 0x537C, symBinAddr: 0x100008494, symSize: 0x14 }
  - { offsetInCU: 0x1860C, offset: 0x1860C, size: 0x8, addend: 0x0, symName: __ZNKSt3__19allocatorIiE8max_sizeB8ne180100Ev, symObjAddr: 0x53E4, symBinAddr: 0x1000084FC, symSize: 0x14 }
  - { offsetInCU: 0x18632, offset: 0x18632, size: 0x8, addend: 0x0, symName: __ZNKSt3__117__compressed_pairIPiNS_9allocatorIiEEE6secondB8ne180100Ev, symObjAddr: 0x53F8, symBinAddr: 0x100008510, symSize: 0x24 }
  - { offsetInCU: 0x18658, offset: 0x18658, size: 0x8, addend: 0x0, symName: __ZNKSt3__122__compressed_pair_elemINS_9allocatorIiEELi1ELb1EE5__getB8ne180100Ev, symObjAddr: 0x541C, symBinAddr: 0x100008534, symSize: 0x14 }
  - { offsetInCU: 0x1867E, offset: 0x1867E, size: 0x8, addend: 0x0, symName: __ZNSt3__123__libcpp_numeric_limitsIlLb1EE3maxB8ne180100Ev, symObjAddr: 0x5430, symBinAddr: 0x100008548, symSize: 0x8 }
  - { offsetInCU: 0x18692, offset: 0x18692, size: 0x8, addend: 0x0, symName: __ZNSt12length_errorC1B8ne180100EPKc, symObjAddr: 0x549C, symBinAddr: 0x1000085B4, symSize: 0x34 }
  - { offsetInCU: 0x186CA, offset: 0x186CA, size: 0x8, addend: 0x0, symName: __ZNSt12length_errorC2B8ne180100EPKc, symObjAddr: 0x54D0, symBinAddr: 0x1000085E8, symSize: 0x4C }
  - { offsetInCU: 0x18702, offset: 0x18702, size: 0x8, addend: 0x0, symName: __ZNSt3__114__split_bufferIiRNS_9allocatorIiEEEC2EmmS3_, symObjAddr: 0x551C, symBinAddr: 0x100008634, symSize: 0xD4 }
  - { offsetInCU: 0x18775, offset: 0x18775, size: 0x8, addend: 0x0, symName: __ZNSt3__117__compressed_pairIPiRNS_9allocatorIiEEEC1B8ne180100IDnS4_EEOT_OT0_, symObjAddr: 0x55F0, symBinAddr: 0x100008708, symSize: 0x3C }
  - { offsetInCU: 0x187CD, offset: 0x187CD, size: 0x8, addend: 0x0, symName: __ZNSt3__114__split_bufferIiRNS_9allocatorIiEEE7__allocB8ne180100Ev, symObjAddr: 0x566C, symBinAddr: 0x100008784, symSize: 0x28 }
  - { offsetInCU: 0x187F3, offset: 0x187F3, size: 0x8, addend: 0x0, symName: __ZNSt3__114__split_bufferIiRNS_9allocatorIiEEE9__end_capB8ne180100Ev, symObjAddr: 0x5694, symBinAddr: 0x1000087AC, symSize: 0x28 }
  - { offsetInCU: 0x18819, offset: 0x18819, size: 0x8, addend: 0x0, symName: __ZNSt3__117__compressed_pairIPiRNS_9allocatorIiEEEC2B8ne180100IDnS4_EEOT_OT0_, symObjAddr: 0x56BC, symBinAddr: 0x1000087D4, symSize: 0x48 }
  - { offsetInCU: 0x18871, offset: 0x18871, size: 0x8, addend: 0x0, symName: __ZNSt3__122__compressed_pair_elemIRNS_9allocatorIiEELi1ELb0EEC2B8ne180100IS3_vEEOT_, symObjAddr: 0x5704, symBinAddr: 0x10000881C, symSize: 0x20 }
  - { offsetInCU: 0x188B3, offset: 0x188B3, size: 0x8, addend: 0x0, symName: __ZNSt3__19allocatorIiE8allocateB8ne180100Em, symObjAddr: 0x5724, symBinAddr: 0x10000883C, symSize: 0x84 }
  - { offsetInCU: 0x188E7, offset: 0x188E7, size: 0x8, addend: 0x0, symName: __ZNSt3__117__compressed_pairIPiRNS_9allocatorIiEEE6secondB8ne180100Ev, symObjAddr: 0x57A8, symBinAddr: 0x1000088C0, symSize: 0x28 }
  - { offsetInCU: 0x1890D, offset: 0x1890D, size: 0x8, addend: 0x0, symName: __ZNSt3__122__compressed_pair_elemIRNS_9allocatorIiEELi1ELb0EE5__getB8ne180100Ev, symObjAddr: 0x57D0, symBinAddr: 0x1000088E8, symSize: 0x18 }
  - { offsetInCU: 0x18933, offset: 0x18933, size: 0x8, addend: 0x0, symName: __ZNSt3__117__compressed_pairIPiRNS_9allocatorIiEEE5firstB8ne180100Ev, symObjAddr: 0x57E8, symBinAddr: 0x100008900, symSize: 0x24 }
  - { offsetInCU: 0x18959, offset: 0x18959, size: 0x8, addend: 0x0, symName: __ZNSt3__116reverse_iteratorIPiEC1B8ne180100ES1_, symObjAddr: 0x58F4, symBinAddr: 0x100008A0C, symSize: 0x34 }
  - { offsetInCU: 0x18991, offset: 0x18991, size: 0x8, addend: 0x0, symName: __ZNKSt3__116reverse_iteratorIPiE4baseB8ne180100Ev, symObjAddr: 0x5928, symBinAddr: 0x100008A40, symSize: 0x18 }
  - { offsetInCU: 0x189B7, offset: 0x189B7, size: 0x8, addend: 0x0, symName: __ZNKSt3__16vectorIiNS_9allocatorIiEEE14__annotate_newB8ne180100Em, symObjAddr: 0x597C, symBinAddr: 0x100008A94, symSize: 0x14 }
  - { offsetInCU: 0x189EC, offset: 0x189EC, size: 0x8, addend: 0x0, symName: __ZNKSt3__116reverse_iteratorIPiEdeB8ne180100Ev, symObjAddr: 0x5A20, symBinAddr: 0x100008B38, symSize: 0x28 }
  - { offsetInCU: 0x18A20, offset: 0x18A20, size: 0x8, addend: 0x0, symName: __ZNSt3__116reverse_iteratorIPiEppB8ne180100Ev, symObjAddr: 0x5A48, symBinAddr: 0x100008B60, symSize: 0x20 }
  - { offsetInCU: 0x18A4B, offset: 0x18A4B, size: 0x8, addend: 0x0, symName: __ZNSt3__119__to_address_helperINS_16reverse_iteratorIPiEEvE6__callB8ne180100ERKS3_, symObjAddr: 0x5AE0, symBinAddr: 0x100008BF8, symSize: 0x4C }
  - { offsetInCU: 0x18A6E, offset: 0x18A6E, size: 0x8, addend: 0x0, symName: __ZNKSt3__116reverse_iteratorIPiEptB8ne180100Ev, symObjAddr: 0x5B2C, symBinAddr: 0x100008C44, symSize: 0x24 }
  - { offsetInCU: 0x18AB7, offset: 0x18AB7, size: 0x8, addend: 0x0, symName: __ZNKSt3__111__move_loopINS_17_ClassicAlgPolicyEEclB8ne180100INS_16reverse_iteratorIPiEES6_S6_EENS_4pairIT_T1_EES8_T0_S9_, symObjAddr: 0x5DC8, symBinAddr: 0x100008EE0, symSize: 0xA0 }
  - { offsetInCU: 0x18B27, offset: 0x18B27, size: 0x8, addend: 0x0, symName: __ZNSt3__18_IterOpsINS_17_ClassicAlgPolicyEE11__iter_moveB8ne180100IRNS_16reverse_iteratorIPiEELi0EEEDTclsr3stdE4movedeclsr3stdE7declvalIRT_EEEEOS8_, symObjAddr: 0x5FC8, symBinAddr: 0x1000090E0, symSize: 0x28 }
  - { offsetInCU: 0x18B59, offset: 0x18B59, size: 0x8, addend: 0x0, symName: __ZNSt3__18_IterOpsINS_17_ClassicAlgPolicyEE25__validate_iter_referenceB8ne180100IRNS_16reverse_iteratorIPiEEEEvv, symObjAddr: 0x5FF0, symBinAddr: 0x100009108, symSize: 0x4 }
  - { offsetInCU: 0x18B77, offset: 0x18B77, size: 0x8, addend: 0x0, symName: __ZNSt3__118__unwrap_iter_implINS_16reverse_iteratorIPiEELb0EE8__unwrapB8ne180100ES3_, symObjAddr: 0x5FF4, symBinAddr: 0x10000910C, symSize: 0x24 }
  - { offsetInCU: 0x18B9A, offset: 0x18B9A, size: 0x8, addend: 0x0, symName: __ZNSt3__14pairINS_16reverse_iteratorIPiEES3_EC1B8ne180100ERKS3_S6_, symObjAddr: 0x6018, symBinAddr: 0x100009130, symSize: 0x3C }
  - { offsetInCU: 0x18BE0, offset: 0x18BE0, size: 0x8, addend: 0x0, symName: __ZNSt3__14pairINS_16reverse_iteratorIPiEES3_EC2B8ne180100ERKS3_S6_, symObjAddr: 0x6054, symBinAddr: 0x10000916C, symSize: 0x34 }
  - { offsetInCU: 0x18C26, offset: 0x18C26, size: 0x8, addend: 0x0, symName: __ZNSt3__118__unwrap_iter_implINS_16reverse_iteratorIPiEELb0EE8__rewrapB8ne180100ES3_S3_, symObjAddr: 0x6088, symBinAddr: 0x1000091A0, symSize: 0x2C }
  - { offsetInCU: 0x18C53, offset: 0x18C53, size: 0x8, addend: 0x0, symName: __ZNSt3__116reverse_iteratorIPiEC2B8ne180100ES1_, symObjAddr: 0x60B4, symBinAddr: 0x1000091CC, symSize: 0x28 }
  - { offsetInCU: 0x18C8B, offset: 0x18C8B, size: 0x8, addend: 0x0, symName: __ZNSt3__114__split_bufferIiRNS_9allocatorIiEEED2Ev, symObjAddr: 0x60DC, symBinAddr: 0x1000091F4, symSize: 0x80 }
  - { offsetInCU: 0x18CB7, offset: 0x18CB7, size: 0x8, addend: 0x0, symName: __ZNSt3__114__split_bufferIiRNS_9allocatorIiEEE5clearB8ne180100Ev, symObjAddr: 0x615C, symBinAddr: 0x100009274, symSize: 0x28 }
  - { offsetInCU: 0x18CDD, offset: 0x18CDD, size: 0x8, addend: 0x0, symName: __ZNKSt3__114__split_bufferIiRNS_9allocatorIiEEE8capacityB8ne180100Ev, symObjAddr: 0x6184, symBinAddr: 0x10000929C, symSize: 0x40 }
  - { offsetInCU: 0x18D03, offset: 0x18D03, size: 0x8, addend: 0x0, symName: __ZNSt3__114__split_bufferIiRNS_9allocatorIiEEE17__destruct_at_endB8ne180100EPi, symObjAddr: 0x61C4, symBinAddr: 0x1000092DC, symSize: 0x2C }
  - { offsetInCU: 0x18D37, offset: 0x18D37, size: 0x8, addend: 0x0, symName: __ZNSt3__114__split_bufferIiRNS_9allocatorIiEEE17__destruct_at_endB8ne180100EPiNS_17integral_constantIbLb0EEE, symObjAddr: 0x61F0, symBinAddr: 0x100009308, symSize: 0x94 }
  - { offsetInCU: 0x18D77, offset: 0x18D77, size: 0x8, addend: 0x0, symName: __ZNKSt3__114__split_bufferIiRNS_9allocatorIiEEE9__end_capB8ne180100Ev, symObjAddr: 0x6284, symBinAddr: 0x10000939C, symSize: 0x28 }
  - { offsetInCU: 0x18D9D, offset: 0x18D9D, size: 0x8, addend: 0x0, symName: __ZNKSt3__117__compressed_pairIPiRNS_9allocatorIiEEE5firstB8ne180100Ev, symObjAddr: 0x62AC, symBinAddr: 0x1000093C4, symSize: 0x24 }
  - { offsetInCU: 0x18DC3, offset: 0x18DC3, size: 0x8, addend: 0x0, symName: __ZNSt3__113unordered_mapIiNS_3setIiNS_4lessIiEENS_9allocatorIiEEEENS_4hashIiEENS_8equal_toIiEENS4_INS_4pairIKiS6_EEEEE4findB8ne180100ERSC_, symObjAddr: 0x62D0, symBinAddr: 0x1000093E8, symSize: 0x40 }
  - { offsetInCU: 0x18DF8, offset: 0x18DF8, size: 0x8, addend: 0x0, symName: __ZNSt3__113unordered_mapIiNS_3setIiNS_4lessIiEENS_9allocatorIiEEEENS_4hashIiEENS_8equal_toIiEENS4_INS_4pairIKiS6_EEEEE3endB8ne180100Ev, symObjAddr: 0x6340, symBinAddr: 0x100009458, symSize: 0x38 }
  - { offsetInCU: 0x18E1E, offset: 0x18E1E, size: 0x8, addend: 0x0, symName: __ZNKSt3__119__hash_map_iteratorINS_15__hash_iteratorIPNS_11__hash_nodeINS_17__hash_value_typeIiNS_3setIiNS_4lessIiEENS_9allocatorIiEEEEEEPvEEEEEptB8ne180100Ev, symObjAddr: 0x6378, symBinAddr: 0x100009490, symSize: 0x2C }
  - { offsetInCU: 0x18E44, offset: 0x18E44, size: 0x8, addend: 0x0, symName: __ZNSt3__113unordered_mapIiNS_3setIiNS_4lessIiEENS_9allocatorIiEEEENS_4hashIiEENS_8equal_toIiEENS4_INS_4pairIKiS6_EEEEE25__construct_node_with_keyERSC_, symObjAddr: 0x63A4, symBinAddr: 0x1000094BC, symSize: 0x144 }
  - { offsetInCU: 0x18E9A, offset: 0x18E9A, size: 0x8, addend: 0x0, symName: __ZNSt3__112__hash_tableINS_17__hash_value_typeIiNS_3setIiNS_4lessIiEENS_9allocatorIiEEEEEENS_22__unordered_map_hasherIiS8_NS_4hashIiEENS_8equal_toIiEELb1EEENS_21__unordered_map_equalIiS8_SD_SB_Lb1EEENS5_IS8_EEE20__node_insert_uniqueEPNS_11__hash_nodeIS8_PvEE, symObjAddr: 0x64E8, symBinAddr: 0x100009600, symSize: 0xD8 }
  - { offsetInCU: 0x18EEF, offset: 0x18EEF, size: 0x8, addend: 0x0, symName: __ZNKSt3__110unique_ptrINS_11__hash_nodeINS_17__hash_value_typeIiNS_3setIiNS_4lessIiEENS_9allocatorIiEEEEEEPvEENS_26__hash_map_node_destructorINS6_ISB_EEEEE3getB8ne180100Ev, symObjAddr: 0x65C0, symBinAddr: 0x1000096D8, symSize: 0x28 }
  - { offsetInCU: 0x18F15, offset: 0x18F15, size: 0x8, addend: 0x0, symName: __ZNSt3__14pairINS_19__hash_map_iteratorINS_15__hash_iteratorIPNS_11__hash_nodeINS_17__hash_value_typeIiNS_3setIiNS_4lessIiEENS_9allocatorIiEEEEEEPvEEEEEEbEC1B8ne180100ISF_bEERKNS0_IT_T0_EE, symObjAddr: 0x65E8, symBinAddr: 0x100009700, symSize: 0x34 }
  - { offsetInCU: 0x18F5F, offset: 0x18F5F, size: 0x8, addend: 0x0, symName: __ZNSt3__110unique_ptrINS_11__hash_nodeINS_17__hash_value_typeIiNS_3setIiNS_4lessIiEENS_9allocatorIiEEEEEEPvEENS_26__hash_map_node_destructorINS6_ISB_EEEEE7releaseB8ne180100Ev, symObjAddr: 0x661C, symBinAddr: 0x100009734, symSize: 0x44 }
  - { offsetInCU: 0x18F94, offset: 0x18F94, size: 0x8, addend: 0x0, symName: __ZNSt3__110unique_ptrINS_11__hash_nodeINS_17__hash_value_typeIiNS_3setIiNS_4lessIiEENS_9allocatorIiEEEEEEPvEENS_26__hash_map_node_destructorINS6_ISB_EEEEED1B8ne180100Ev, symObjAddr: 0x6660, symBinAddr: 0x100009778, symSize: 0x2C }
  - { offsetInCU: 0x18FBE, offset: 0x18FBE, size: 0x8, addend: 0x0, symName: __ZNSt3__112__hash_tableINS_17__hash_value_typeIiNS_3setIiNS_4lessIiEENS_9allocatorIiEEEEEENS_22__unordered_map_hasherIiS8_NS_4hashIiEENS_8equal_toIiEELb1EEENS_21__unordered_map_equalIiS8_SD_SB_Lb1EEENS5_IS8_EEE4findIiEENS_15__hash_iteratorIPNS_11__hash_nodeIS8_PvEEEERKT_, symObjAddr: 0x668C, symBinAddr: 0x1000097A4, symSize: 0x1B0 }
  - { offsetInCU: 0x19048, offset: 0x19048, size: 0x8, addend: 0x0, symName: __ZNSt3__119__hash_map_iteratorINS_15__hash_iteratorIPNS_11__hash_nodeINS_17__hash_value_typeIiNS_3setIiNS_4lessIiEENS_9allocatorIiEEEEEEPvEEEEEC1B8ne180100ESE_, symObjAddr: 0x683C, symBinAddr: 0x100009954, symSize: 0x34 }
  - { offsetInCU: 0x19081, offset: 0x19081, size: 0x8, addend: 0x0, symName: __ZNSt3__112__hash_tableINS_17__hash_value_typeIiNS_3setIiNS_4lessIiEENS_9allocatorIiEEEEEENS_22__unordered_map_hasherIiS8_NS_4hashIiEENS_8equal_toIiEELb1EEENS_21__unordered_map_equalIiS8_SD_SB_Lb1EEENS5_IS8_EEE13hash_functionB8ne180100Ev, symObjAddr: 0x6870, symBinAddr: 0x100009988, symSize: 0x28 }
  - { offsetInCU: 0x190A7, offset: 0x190A7, size: 0x8, addend: 0x0, symName: __ZNKSt3__122__unordered_map_hasherIiNS_17__hash_value_typeIiNS_3setIiNS_4lessIiEENS_9allocatorIiEEEEEENS_4hashIiEENS_8equal_toIiEELb1EEclB8ne180100ERKi, symObjAddr: 0x6898, symBinAddr: 0x1000099B0, symSize: 0x30 }
  - { offsetInCU: 0x190DC, offset: 0x190DC, size: 0x8, addend: 0x0, symName: __ZNKSt3__112__hash_tableINS_17__hash_value_typeIiNS_3setIiNS_4lessIiEENS_9allocatorIiEEEEEENS_22__unordered_map_hasherIiS8_NS_4hashIiEENS_8equal_toIiEELb1EEENS_21__unordered_map_equalIiS8_SD_SB_Lb1EEENS5_IS8_EEE12bucket_countB8ne180100Ev, symObjAddr: 0x68C8, symBinAddr: 0x1000099E0, symSize: 0x28 }
  - { offsetInCU: 0x19102, offset: 0x19102, size: 0x8, addend: 0x0, symName: __ZNKSt3__110unique_ptrIA_PNS_16__hash_node_baseIPNS_11__hash_nodeINS_17__hash_value_typeIiNS_3setIiNS_4lessIiEENS_9allocatorIiEEEEEEPvEEEENS_25__bucket_list_deallocatorINS7_ISF_EEEEEixB8ne180100Em, symObjAddr: 0x68F0, symBinAddr: 0x100009A08, symSize: 0x34 }
  - { offsetInCU: 0x19137, offset: 0x19137, size: 0x8, addend: 0x0, symName: __ZNKSt3__116__hash_node_baseIPNS_11__hash_nodeINS_17__hash_value_typeIiNS_3setIiNS_4lessIiEENS_9allocatorIiEEEEEEPvEEE6__hashB8ne180100Ev, symObjAddr: 0x6924, symBinAddr: 0x100009A3C, symSize: 0x18 }
  - { offsetInCU: 0x1915D, offset: 0x1915D, size: 0x8, addend: 0x0, symName: __ZNSt3__112__hash_tableINS_17__hash_value_typeIiNS_3setIiNS_4lessIiEENS_9allocatorIiEEEEEENS_22__unordered_map_hasherIiS8_NS_4hashIiEENS_8equal_toIiEELb1EEENS_21__unordered_map_equalIiS8_SD_SB_Lb1EEENS5_IS8_EEE6key_eqB8ne180100Ev, symObjAddr: 0x693C, symBinAddr: 0x100009A54, symSize: 0x28 }
  - { offsetInCU: 0x19183, offset: 0x19183, size: 0x8, addend: 0x0, symName: __ZNKSt3__121__unordered_map_equalIiNS_17__hash_value_typeIiNS_3setIiNS_4lessIiEENS_9allocatorIiEEEEEENS_8equal_toIiEENS_4hashIiEELb1EEclB8ne180100ERKS8_RKi, symObjAddr: 0x6964, symBinAddr: 0x100009A7C, symSize: 0x48 }
  - { offsetInCU: 0x191C7, offset: 0x191C7, size: 0x8, addend: 0x0, symName: __ZNSt3__116__hash_node_baseIPNS_11__hash_nodeINS_17__hash_value_typeIiNS_3setIiNS_4lessIiEENS_9allocatorIiEEEEEEPvEEE8__upcastB8ne180100Ev, symObjAddr: 0x69AC, symBinAddr: 0x100009AC4, symSize: 0x24 }
  - { offsetInCU: 0x191ED, offset: 0x191ED, size: 0x8, addend: 0x0, symName: __ZNSt3__111__hash_nodeINS_17__hash_value_typeIiNS_3setIiNS_4lessIiEENS_9allocatorIiEEEEEEPvE11__get_valueB8ne180100Ev, symObjAddr: 0x69D0, symBinAddr: 0x100009AE8, symSize: 0x28 }
  - { offsetInCU: 0x19213, offset: 0x19213, size: 0x8, addend: 0x0, symName: __ZNSt3__115__hash_iteratorIPNS_11__hash_nodeINS_17__hash_value_typeIiNS_3setIiNS_4lessIiEENS_9allocatorIiEEEEEEPvEEEC1B8ne180100EPNS_16__hash_node_baseISC_EE, symObjAddr: 0x69F8, symBinAddr: 0x100009B10, symSize: 0x34 }
  - { offsetInCU: 0x1924C, offset: 0x1924C, size: 0x8, addend: 0x0, symName: __ZNSt3__112__hash_tableINS_17__hash_value_typeIiNS_3setIiNS_4lessIiEENS_9allocatorIiEEEEEENS_22__unordered_map_hasherIiS8_NS_4hashIiEENS_8equal_toIiEELb1EEENS_21__unordered_map_equalIiS8_SD_SB_Lb1EEENS5_IS8_EEE3endEv, symObjAddr: 0x6A2C, symBinAddr: 0x100009B44, symSize: 0x2C }
  - { offsetInCU: 0x19274, offset: 0x19274, size: 0x8, addend: 0x0, symName: __ZNSt3__117__compressed_pairImNS_22__unordered_map_hasherIiNS_17__hash_value_typeIiNS_3setIiNS_4lessIiEENS_9allocatorIiEEEEEENS_4hashIiEENS_8equal_toIiEELb1EEEE6secondB8ne180100Ev, symObjAddr: 0x6A58, symBinAddr: 0x100009B70, symSize: 0x24 }
  - { offsetInCU: 0x1929A, offset: 0x1929A, size: 0x8, addend: 0x0, symName: __ZNSt3__122__compressed_pair_elemINS_22__unordered_map_hasherIiNS_17__hash_value_typeIiNS_3setIiNS_4lessIiEENS_9allocatorIiEEEEEENS_4hashIiEENS_8equal_toIiEELb1EEELi1ELb1EE5__getB8ne180100Ev, symObjAddr: 0x6A7C, symBinAddr: 0x100009B94, symSize: 0x14 }
  - { offsetInCU: 0x192C0, offset: 0x192C0, size: 0x8, addend: 0x0, symName: __ZNKSt3__110unique_ptrIA_PNS_16__hash_node_baseIPNS_11__hash_nodeINS_17__hash_value_typeIiNS_3setIiNS_4lessIiEENS_9allocatorIiEEEEEEPvEEEENS_25__bucket_list_deallocatorINS7_ISF_EEEEE11get_deleterB8ne180100Ev, symObjAddr: 0x6A90, symBinAddr: 0x100009BA8, symSize: 0x24 }
  - { offsetInCU: 0x192E6, offset: 0x192E6, size: 0x8, addend: 0x0, symName: __ZNKSt3__125__bucket_list_deallocatorINS_9allocatorIPNS_16__hash_node_baseIPNS_11__hash_nodeINS_17__hash_value_typeIiNS_3setIiNS_4lessIiEENS1_IiEEEEEEPvEEEEEEE4sizeB8ne180100Ev, symObjAddr: 0x6AB4, symBinAddr: 0x100009BCC, symSize: 0x28 }
  - { offsetInCU: 0x1930C, offset: 0x1930C, size: 0x8, addend: 0x0, symName: __ZNKSt3__117__compressed_pairIPPNS_16__hash_node_baseIPNS_11__hash_nodeINS_17__hash_value_typeIiNS_3setIiNS_4lessIiEENS_9allocatorIiEEEEEEPvEEEENS_25__bucket_list_deallocatorINS7_ISF_EEEEE6secondB8ne180100Ev, symObjAddr: 0x6ADC, symBinAddr: 0x100009BF4, symSize: 0x28 }
  - { offsetInCU: 0x19332, offset: 0x19332, size: 0x8, addend: 0x0, symName: __ZNKSt3__122__compressed_pair_elemINS_25__bucket_list_deallocatorINS_9allocatorIPNS_16__hash_node_baseIPNS_11__hash_nodeINS_17__hash_value_typeIiNS_3setIiNS_4lessIiEENS2_IiEEEEEEPvEEEEEEEELi1ELb0EE5__getB8ne180100Ev, symObjAddr: 0x6B04, symBinAddr: 0x100009C1C, symSize: 0x14 }
  - { offsetInCU: 0x19358, offset: 0x19358, size: 0x8, addend: 0x0, symName: __ZNKSt3__117__compressed_pairImNS_9allocatorIPNS_16__hash_node_baseIPNS_11__hash_nodeINS_17__hash_value_typeIiNS_3setIiNS_4lessIiEENS1_IiEEEEEEPvEEEEEEE5firstB8ne180100Ev, symObjAddr: 0x6B18, symBinAddr: 0x100009C30, symSize: 0x24 }
  - { offsetInCU: 0x1937E, offset: 0x1937E, size: 0x8, addend: 0x0, symName: __ZNKSt3__117__compressed_pairIPPNS_16__hash_node_baseIPNS_11__hash_nodeINS_17__hash_value_typeIiNS_3setIiNS_4lessIiEENS_9allocatorIiEEEEEEPvEEEENS_25__bucket_list_deallocatorINS7_ISF_EEEEE5firstB8ne180100Ev, symObjAddr: 0x6B3C, symBinAddr: 0x100009C54, symSize: 0x24 }
  - { offsetInCU: 0x193A4, offset: 0x193A4, size: 0x8, addend: 0x0, symName: __ZNKSt3__122__compressed_pair_elemIPPNS_16__hash_node_baseIPNS_11__hash_nodeINS_17__hash_value_typeIiNS_3setIiNS_4lessIiEENS_9allocatorIiEEEEEEPvEEEELi0ELb0EE5__getB8ne180100Ev, symObjAddr: 0x6B60, symBinAddr: 0x100009C78, symSize: 0x14 }
  - { offsetInCU: 0x193CA, offset: 0x193CA, size: 0x8, addend: 0x0, symName: __ZNSt3__117__compressed_pairIfNS_21__unordered_map_equalIiNS_17__hash_value_typeIiNS_3setIiNS_4lessIiEENS_9allocatorIiEEEEEENS_8equal_toIiEENS_4hashIiEELb1EEEE6secondB8ne180100Ev, symObjAddr: 0x6B74, symBinAddr: 0x100009C8C, symSize: 0x24 }
  - { offsetInCU: 0x193F0, offset: 0x193F0, size: 0x8, addend: 0x0, symName: __ZNSt3__122__compressed_pair_elemINS_21__unordered_map_equalIiNS_17__hash_value_typeIiNS_3setIiNS_4lessIiEENS_9allocatorIiEEEEEENS_8equal_toIiEENS_4hashIiEELb1EEELi1ELb1EE5__getB8ne180100Ev, symObjAddr: 0x6B98, symBinAddr: 0x100009CB0, symSize: 0x14 }
  - { offsetInCU: 0x19416, offset: 0x19416, size: 0x8, addend: 0x0, symName: __ZNKSt3__117__hash_value_typeIiNS_3setIiNS_4lessIiEENS_9allocatorIiEEEEE11__get_valueB8ne180100Ev, symObjAddr: 0x6BAC, symBinAddr: 0x100009CC4, symSize: 0x14 }
  - { offsetInCU: 0x1943C, offset: 0x1943C, size: 0x8, addend: 0x0, symName: __ZNSt3__114pointer_traitsIPNS_16__hash_node_baseIPNS_11__hash_nodeINS_17__hash_value_typeIiNS_3setIiNS_4lessIiEENS_9allocatorIiEEEEEEPvEEEEE10pointer_toB8ne180100ERSE_, symObjAddr: 0x6BC0, symBinAddr: 0x100009CD8, symSize: 0x14 }
  - { offsetInCU: 0x1945F, offset: 0x1945F, size: 0x8, addend: 0x0, symName: __ZNSt3__115__hash_iteratorIPNS_11__hash_nodeINS_17__hash_value_typeIiNS_3setIiNS_4lessIiEENS_9allocatorIiEEEEEEPvEEEC2B8ne180100EPNS_16__hash_node_baseISC_EE, symObjAddr: 0x6BE8, symBinAddr: 0x100009D00, symSize: 0x20 }
  - { offsetInCU: 0x19498, offset: 0x19498, size: 0x8, addend: 0x0, symName: __ZNSt3__119__hash_map_iteratorINS_15__hash_iteratorIPNS_11__hash_nodeINS_17__hash_value_typeIiNS_3setIiNS_4lessIiEENS_9allocatorIiEEEEEEPvEEEEEC2B8ne180100ESE_, symObjAddr: 0x6C08, symBinAddr: 0x100009D20, symSize: 0x20 }
  - { offsetInCU: 0x194D1, offset: 0x194D1, size: 0x8, addend: 0x0, symName: __ZNSt3__114pointer_traitsIPNS_4pairIKiNS_3setIiNS_4lessIiEENS_9allocatorIiEEEEEEE10pointer_toB8ne180100ERS9_, symObjAddr: 0x6C8C, symBinAddr: 0x100009DA4, symSize: 0x14 }
  - { offsetInCU: 0x194F4, offset: 0x194F4, size: 0x8, addend: 0x0, symName: __ZNKSt3__115__hash_iteratorIPNS_11__hash_nodeINS_17__hash_value_typeIiNS_3setIiNS_4lessIiEENS_9allocatorIiEEEEEEPvEEEptB8ne180100Ev, symObjAddr: 0x6CA0, symBinAddr: 0x100009DB8, symSize: 0x30 }
  - { offsetInCU: 0x1951A, offset: 0x1951A, size: 0x8, addend: 0x0, symName: __ZNSt3__117__hash_value_typeIiNS_3setIiNS_4lessIiEENS_9allocatorIiEEEEE11__get_valueB8ne180100Ev, symObjAddr: 0x6CD0, symBinAddr: 0x100009DE8, symSize: 0x14 }
  - { offsetInCU: 0x19540, offset: 0x19540, size: 0x8, addend: 0x0, symName: __ZNSt3__114pointer_traitsIPNS_17__hash_value_typeIiNS_3setIiNS_4lessIiEENS_9allocatorIiEEEEEEE10pointer_toB8ne180100ERS8_, symObjAddr: 0x6CE4, symBinAddr: 0x100009DFC, symSize: 0x14 }
  - { offsetInCU: 0x19563, offset: 0x19563, size: 0x8, addend: 0x0, symName: __ZNSt3__112__hash_tableINS_17__hash_value_typeIiNS_3setIiNS_4lessIiEENS_9allocatorIiEEEEEENS_22__unordered_map_hasherIiS8_NS_4hashIiEENS_8equal_toIiEELb1EEENS_21__unordered_map_equalIiS8_SD_SB_Lb1EEENS5_IS8_EEE12__node_allocB8ne180100Ev, symObjAddr: 0x6CF8, symBinAddr: 0x100009E10, symSize: 0x28 }
  - { offsetInCU: 0x19589, offset: 0x19589, size: 0x8, addend: 0x0, symName: __ZNSt3__116allocator_traitsINS_9allocatorINS_11__hash_nodeINS_17__hash_value_typeIiNS_3setIiNS_4lessIiEENS1_IiEEEEEEPvEEEEE8allocateB8ne180100ERSC_m, symObjAddr: 0x6D20, symBinAddr: 0x100009E38, symSize: 0x2C }
  - { offsetInCU: 0x195BC, offset: 0x195BC, size: 0x8, addend: 0x0, symName: __ZNSt3__126__hash_map_node_destructorINS_9allocatorINS_11__hash_nodeINS_17__hash_value_typeIiNS_3setIiNS_4lessIiEENS1_IiEEEEEEPvEEEEEC1B8ne180100ERSC_, symObjAddr: 0x6D4C, symBinAddr: 0x100009E64, symSize: 0x34 }
  - { offsetInCU: 0x195FA, offset: 0x195FA, size: 0x8, addend: 0x0, symName: __ZNSt3__110unique_ptrINS_11__hash_nodeINS_17__hash_value_typeIiNS_3setIiNS_4lessIiEENS_9allocatorIiEEEEEEPvEENS_26__hash_map_node_destructorINS6_ISB_EEEEEC1B8ne180100ILb1EvEEPSB_NS_16__dependent_typeINS_27__unique_ptr_deleter_sfinaeISE_EEXT_EE20__good_rval_ref_typeE, symObjAddr: 0x6D80, symBinAddr: 0x100009E98, symSize: 0x3C }
  - { offsetInCU: 0x1964B, offset: 0x1964B, size: 0x8, addend: 0x0, symName: __ZNSt3__116allocator_traitsINS_9allocatorINS_11__hash_nodeINS_17__hash_value_typeIiNS_3setIiNS_4lessIiEENS1_IiEEEEEEPvEEEEE9constructB8ne180100IKiJRSF_EvEEvRSC_PT_DpOT0_, symObjAddr: 0x6DBC, symBinAddr: 0x100009ED4, symSize: 0x34 }
  - { offsetInCU: 0x196A2, offset: 0x196A2, size: 0x8, addend: 0x0, symName: __ZNKSt3__110unique_ptrINS_11__hash_nodeINS_17__hash_value_typeIiNS_3setIiNS_4lessIiEENS_9allocatorIiEEEEEEPvEENS_26__hash_map_node_destructorINS6_ISB_EEEEEptB8ne180100Ev, symObjAddr: 0x6DF0, symBinAddr: 0x100009F08, symSize: 0x28 }
  - { offsetInCU: 0x196C8, offset: 0x196C8, size: 0x8, addend: 0x0, symName: __ZNSt3__110unique_ptrINS_11__hash_nodeINS_17__hash_value_typeIiNS_3setIiNS_4lessIiEENS_9allocatorIiEEEEEEPvEENS_26__hash_map_node_destructorINS6_ISB_EEEEE11get_deleterB8ne180100Ev, symObjAddr: 0x6E18, symBinAddr: 0x100009F30, symSize: 0x24 }
  - { offsetInCU: 0x196F3, offset: 0x196F3, size: 0x8, addend: 0x0, symName: __ZNSt3__116allocator_traitsINS_9allocatorINS_11__hash_nodeINS_17__hash_value_typeIiNS_3setIiNS_4lessIiEENS1_IiEEEEEEPvEEEEE9constructB8ne180100IS8_JEvEEvRSC_PT_DpOT0_, symObjAddr: 0x6E3C, symBinAddr: 0x100009F54, symSize: 0x2C }
  - { offsetInCU: 0x19735, offset: 0x19735, size: 0x8, addend: 0x0, symName: __ZNSt3__117__compressed_pairINS_16__hash_node_baseIPNS_11__hash_nodeINS_17__hash_value_typeIiNS_3setIiNS_4lessIiEENS_9allocatorIiEEEEEEPvEEEENS7_ISC_EEE6secondB8ne180100Ev, symObjAddr: 0x6E68, symBinAddr: 0x100009F80, symSize: 0x24 }
  - { offsetInCU: 0x1975B, offset: 0x1975B, size: 0x8, addend: 0x0, symName: __ZNSt3__122__compressed_pair_elemINS_9allocatorINS_11__hash_nodeINS_17__hash_value_typeIiNS_3setIiNS_4lessIiEENS1_IiEEEEEEPvEEEELi1ELb1EE5__getB8ne180100Ev, symObjAddr: 0x6E8C, symBinAddr: 0x100009FA4, symSize: 0x14 }
  - { offsetInCU: 0x19781, offset: 0x19781, size: 0x8, addend: 0x0, symName: __ZNSt3__19allocatorINS_11__hash_nodeINS_17__hash_value_typeIiNS_3setIiNS_4lessIiEENS0_IiEEEEEEPvEEE8allocateB8ne180100Em, symObjAddr: 0x6EA0, symBinAddr: 0x100009FB8, symSize: 0x8C }
  - { offsetInCU: 0x197BF, offset: 0x197BF, size: 0x8, addend: 0x0, symName: __ZNSt3__116allocator_traitsINS_9allocatorINS_11__hash_nodeINS_17__hash_value_typeIiNS_3setIiNS_4lessIiEENS1_IiEEEEEEPvEEEEE8max_sizeB8ne180100ISC_vEEmRKSC_, symObjAddr: 0x6F2C, symBinAddr: 0x10000A044, symSize: 0x24 }
  - { offsetInCU: 0x197ED, offset: 0x197ED, size: 0x8, addend: 0x0, symName: __ZNKSt3__19allocatorINS_11__hash_nodeINS_17__hash_value_typeIiNS_3setIiNS_4lessIiEENS0_IiEEEEEEPvEEE8max_sizeB8ne180100Ev, symObjAddr: 0x6F50, symBinAddr: 0x10000A068, symSize: 0x18 }
  - { offsetInCU: 0x19813, offset: 0x19813, size: 0x8, addend: 0x0, symName: __ZNSt3__126__hash_map_node_destructorINS_9allocatorINS_11__hash_nodeINS_17__hash_value_typeIiNS_3setIiNS_4lessIiEENS1_IiEEEEEEPvEEEEEC2B8ne180100ERSC_, symObjAddr: 0x6F68, symBinAddr: 0x10000A080, symSize: 0x28 }
  - { offsetInCU: 0x1984C, offset: 0x1984C, size: 0x8, addend: 0x0, symName: __ZNSt3__110unique_ptrINS_11__hash_nodeINS_17__hash_value_typeIiNS_3setIiNS_4lessIiEENS_9allocatorIiEEEEEEPvEENS_26__hash_map_node_destructorINS6_ISB_EEEEEC2B8ne180100ILb1EvEEPSB_NS_16__dependent_typeINS_27__unique_ptr_deleter_sfinaeISE_EEXT_EE20__good_rval_ref_typeE, symObjAddr: 0x6F90, symBinAddr: 0x10000A0A8, symSize: 0x5C }
  - { offsetInCU: 0x1989D, offset: 0x1989D, size: 0x8, addend: 0x0, symName: __ZNSt3__117__compressed_pairIPNS_11__hash_nodeINS_17__hash_value_typeIiNS_3setIiNS_4lessIiEENS_9allocatorIiEEEEEEPvEENS_26__hash_map_node_destructorINS6_ISB_EEEEEC1B8ne180100IRSC_SF_EEOT_OT0_, symObjAddr: 0x6FEC, symBinAddr: 0x10000A104, symSize: 0x3C }
  - { offsetInCU: 0x198F5, offset: 0x198F5, size: 0x8, addend: 0x0, symName: __ZNSt3__117__compressed_pairIPNS_11__hash_nodeINS_17__hash_value_typeIiNS_3setIiNS_4lessIiEENS_9allocatorIiEEEEEEPvEENS_26__hash_map_node_destructorINS6_ISB_EEEEEC2B8ne180100IRSC_SF_EEOT_OT0_, symObjAddr: 0x7028, symBinAddr: 0x10000A140, symSize: 0x48 }
  - { offsetInCU: 0x1994D, offset: 0x1994D, size: 0x8, addend: 0x0, symName: __ZNSt3__122__compressed_pair_elemIPNS_11__hash_nodeINS_17__hash_value_typeIiNS_3setIiNS_4lessIiEENS_9allocatorIiEEEEEEPvEELi0ELb0EEC2B8ne180100IRSC_vEEOT_, symObjAddr: 0x7070, symBinAddr: 0x10000A188, symSize: 0x24 }
  - { offsetInCU: 0x1998F, offset: 0x1998F, size: 0x8, addend: 0x0, symName: __ZNSt3__122__compressed_pair_elemINS_26__hash_map_node_destructorINS_9allocatorINS_11__hash_nodeINS_17__hash_value_typeIiNS_3setIiNS_4lessIiEENS2_IiEEEEEEPvEEEEEELi1ELb0EEC2B8ne180100ISE_vEEOT_, symObjAddr: 0x7094, symBinAddr: 0x10000A1AC, symSize: 0x24 }
  - { offsetInCU: 0x199D1, offset: 0x199D1, size: 0x8, addend: 0x0, symName: __ZNSt3__19allocatorINS_11__hash_nodeINS_17__hash_value_typeIiNS_3setIiNS_4lessIiEENS0_IiEEEEEEPvEEE9constructB8ne180100IKiJRSD_EEEvPT_DpOT0_, symObjAddr: 0x70B8, symBinAddr: 0x10000A1D0, symSize: 0x28 }
  - { offsetInCU: 0x19A27, offset: 0x19A27, size: 0x8, addend: 0x0, symName: __ZNKSt3__117__compressed_pairIPNS_11__hash_nodeINS_17__hash_value_typeIiNS_3setIiNS_4lessIiEENS_9allocatorIiEEEEEEPvEENS_26__hash_map_node_destructorINS6_ISB_EEEEE5firstB8ne180100Ev, symObjAddr: 0x70E0, symBinAddr: 0x10000A1F8, symSize: 0x24 }
  - { offsetInCU: 0x19A4D, offset: 0x19A4D, size: 0x8, addend: 0x0, symName: __ZNKSt3__122__compressed_pair_elemIPNS_11__hash_nodeINS_17__hash_value_typeIiNS_3setIiNS_4lessIiEENS_9allocatorIiEEEEEEPvEELi0ELb0EE5__getB8ne180100Ev, symObjAddr: 0x7104, symBinAddr: 0x10000A21C, symSize: 0x14 }
  - { offsetInCU: 0x19A73, offset: 0x19A73, size: 0x8, addend: 0x0, symName: __ZNSt3__117__compressed_pairIPNS_11__hash_nodeINS_17__hash_value_typeIiNS_3setIiNS_4lessIiEENS_9allocatorIiEEEEEEPvEENS_26__hash_map_node_destructorINS6_ISB_EEEEE6secondB8ne180100Ev, symObjAddr: 0x7118, symBinAddr: 0x10000A230, symSize: 0x28 }
  - { offsetInCU: 0x19A99, offset: 0x19A99, size: 0x8, addend: 0x0, symName: __ZNSt3__122__compressed_pair_elemINS_26__hash_map_node_destructorINS_9allocatorINS_11__hash_nodeINS_17__hash_value_typeIiNS_3setIiNS_4lessIiEENS2_IiEEEEEEPvEEEEEELi1ELb0EE5__getB8ne180100Ev, symObjAddr: 0x7140, symBinAddr: 0x10000A258, symSize: 0x14 }
  - { offsetInCU: 0x19ABF, offset: 0x19ABF, size: 0x8, addend: 0x0, symName: __ZNSt3__19allocatorINS_11__hash_nodeINS_17__hash_value_typeIiNS_3setIiNS_4lessIiEENS0_IiEEEEEEPvEEE9constructB8ne180100IS7_JEEEvPT_DpOT0_, symObjAddr: 0x7154, symBinAddr: 0x10000A26C, symSize: 0x28 }
  - { offsetInCU: 0x19B01, offset: 0x19B01, size: 0x8, addend: 0x0, symName: __ZNSt3__13setIiNS_4lessIiEENS_9allocatorIiEEEC1B8ne180100Ev, symObjAddr: 0x717C, symBinAddr: 0x10000A294, symSize: 0x2C }
  - { offsetInCU: 0x19B2B, offset: 0x19B2B, size: 0x8, addend: 0x0, symName: __ZNSt3__13setIiNS_4lessIiEENS_9allocatorIiEEEC2B8ne180100Ev, symObjAddr: 0x71A8, symBinAddr: 0x10000A2C0, symSize: 0x30 }
  - { offsetInCU: 0x19B55, offset: 0x19B55, size: 0x8, addend: 0x0, symName: __ZNSt3__16__treeIiNS_4lessIiEENS_9allocatorIiEEEC1ERKS2_, symObjAddr: 0x71D8, symBinAddr: 0x10000A2F0, symSize: 0x34 }
  - { offsetInCU: 0x19B90, offset: 0x19B90, size: 0x8, addend: 0x0, symName: __ZNSt3__16__treeIiNS_4lessIiEENS_9allocatorIiEEEC2ERKS2_, symObjAddr: 0x720C, symBinAddr: 0x10000A324, symSize: 0x70 }
  - { offsetInCU: 0x19BCB, offset: 0x19BCB, size: 0x8, addend: 0x0, symName: __ZNSt3__117__compressed_pairINS_15__tree_end_nodeIPNS_16__tree_node_baseIPvEEEENS_9allocatorINS_11__tree_nodeIiS3_EEEEEC1B8ne180100ILb1EvEEv, symObjAddr: 0x727C, symBinAddr: 0x10000A394, symSize: 0x2C }
  - { offsetInCU: 0x19C00, offset: 0x19C00, size: 0x8, addend: 0x0, symName: __ZNSt3__117__compressed_pairImNS_4lessIiEEEC1B8ne180100IiRKS2_EEOT_OT0_, symObjAddr: 0x72A8, symBinAddr: 0x10000A3C0, symSize: 0x3C }
  - { offsetInCU: 0x19C58, offset: 0x19C58, size: 0x8, addend: 0x0, symName: __ZNSt3__16__treeIiNS_4lessIiEENS_9allocatorIiEEE10__end_nodeB8ne180100Ev, symObjAddr: 0x72E4, symBinAddr: 0x10000A3FC, symSize: 0x2C }
  - { offsetInCU: 0x19C7E, offset: 0x19C7E, size: 0x8, addend: 0x0, symName: __ZNSt3__16__treeIiNS_4lessIiEENS_9allocatorIiEEE12__begin_nodeB8ne180100Ev, symObjAddr: 0x7310, symBinAddr: 0x10000A428, symSize: 0x14 }
  - { offsetInCU: 0x19CA4, offset: 0x19CA4, size: 0x8, addend: 0x0, symName: __ZNSt3__117__compressed_pairINS_15__tree_end_nodeIPNS_16__tree_node_baseIPvEEEENS_9allocatorINS_11__tree_nodeIiS3_EEEEEC2B8ne180100ILb1EvEEv, symObjAddr: 0x7324, symBinAddr: 0x10000A43C, symSize: 0x34 }
  - { offsetInCU: 0x19CD9, offset: 0x19CD9, size: 0x8, addend: 0x0, symName: __ZNSt3__122__compressed_pair_elemINS_15__tree_end_nodeIPNS_16__tree_node_baseIPvEEEELi0ELb0EEC2B8ne180100ENS_16__value_init_tagE, symObjAddr: 0x7358, symBinAddr: 0x10000A470, symSize: 0x2C }
  - { offsetInCU: 0x19D0D, offset: 0x19D0D, size: 0x8, addend: 0x0, symName: __ZNSt3__122__compressed_pair_elemINS_9allocatorINS_11__tree_nodeIiPvEEEELi1ELb1EEC2B8ne180100ENS_16__value_init_tagE, symObjAddr: 0x7384, symBinAddr: 0x10000A49C, symSize: 0x2C }
  - { offsetInCU: 0x19D41, offset: 0x19D41, size: 0x8, addend: 0x0, symName: __ZNSt3__115__tree_end_nodeIPNS_16__tree_node_baseIPvEEEC1B8ne180100Ev, symObjAddr: 0x73B0, symBinAddr: 0x10000A4C8, symSize: 0x2C }
  - { offsetInCU: 0x19D6B, offset: 0x19D6B, size: 0x8, addend: 0x0, symName: __ZNSt3__115__tree_end_nodeIPNS_16__tree_node_baseIPvEEEC2B8ne180100Ev, symObjAddr: 0x73DC, symBinAddr: 0x10000A4F4, symSize: 0x18 }
  - { offsetInCU: 0x19D95, offset: 0x19D95, size: 0x8, addend: 0x0, symName: __ZNSt3__19allocatorINS_11__tree_nodeIiPvEEEC2B8ne180100Ev, symObjAddr: 0x73F4, symBinAddr: 0x10000A50C, symSize: 0x2C }
  - { offsetInCU: 0x19DBF, offset: 0x19DBF, size: 0x8, addend: 0x0, symName: __ZNSt3__116__non_trivial_ifILb1ENS_9allocatorINS_11__tree_nodeIiPvEEEEEC2B8ne180100Ev, symObjAddr: 0x7420, symBinAddr: 0x10000A538, symSize: 0x14 }
  - { offsetInCU: 0x19DE9, offset: 0x19DE9, size: 0x8, addend: 0x0, symName: __ZNSt3__117__compressed_pairImNS_4lessIiEEEC2B8ne180100IiRKS2_EEOT_OT0_, symObjAddr: 0x7434, symBinAddr: 0x10000A54C, symSize: 0x44 }
  - { offsetInCU: 0x19E41, offset: 0x19E41, size: 0x8, addend: 0x0, symName: __ZNSt3__122__compressed_pair_elemINS_4lessIiEELi1ELb1EEC2B8ne180100IRKS2_vEEOT_, symObjAddr: 0x7478, symBinAddr: 0x10000A590, symSize: 0x18 }
  - { offsetInCU: 0x19E83, offset: 0x19E83, size: 0x8, addend: 0x0, symName: __ZNSt3__114pointer_traitsIPNS_15__tree_end_nodeIPNS_16__tree_node_baseIPvEEEEE10pointer_toB8ne180100ERS6_, symObjAddr: 0x7490, symBinAddr: 0x10000A5A8, symSize: 0x14 }
  - { offsetInCU: 0x19EA6, offset: 0x19EA6, size: 0x8, addend: 0x0, symName: __ZNSt3__117__compressed_pairINS_15__tree_end_nodeIPNS_16__tree_node_baseIPvEEEENS_9allocatorINS_11__tree_nodeIiS3_EEEEE5firstB8ne180100Ev, symObjAddr: 0x74A4, symBinAddr: 0x10000A5BC, symSize: 0x24 }
  - { offsetInCU: 0x19ECC, offset: 0x19ECC, size: 0x8, addend: 0x0, symName: __ZNSt3__122__compressed_pair_elemINS_15__tree_end_nodeIPNS_16__tree_node_baseIPvEEEELi0ELb0EE5__getB8ne180100Ev, symObjAddr: 0x74C8, symBinAddr: 0x10000A5E0, symSize: 0x14 }
  - { offsetInCU: 0x19EF2, offset: 0x19EF2, size: 0x8, addend: 0x0, symName: __ZNKSt3__122__unordered_map_hasherIiNS_17__hash_value_typeIiNS_3setIiNS_4lessIiEENS_9allocatorIiEEEEEENS_4hashIiEENS_8equal_toIiEELb1EEclB8ne180100ERKS8_, symObjAddr: 0x74DC, symBinAddr: 0x10000A5F4, symSize: 0x40 }
  - { offsetInCU: 0x19F27, offset: 0x19F27, size: 0x8, addend: 0x0, symName: __ZNSt3__112__hash_tableINS_17__hash_value_typeIiNS_3setIiNS_4lessIiEENS_9allocatorIiEEEEEENS_22__unordered_map_hasherIiS8_NS_4hashIiEENS_8equal_toIiEELb1EEENS_21__unordered_map_equalIiS8_SD_SB_Lb1EEENS5_IS8_EEE28__node_insert_unique_prepareB8ne180100EmRS8_, symObjAddr: 0x751C, symBinAddr: 0x10000A634, symSize: 0x290 }
  - { offsetInCU: 0x19FA8, offset: 0x19FA8, size: 0x8, addend: 0x0, symName: __ZNSt3__112__hash_tableINS_17__hash_value_typeIiNS_3setIiNS_4lessIiEENS_9allocatorIiEEEEEENS_22__unordered_map_hasherIiS8_NS_4hashIiEENS_8equal_toIiEELb1EEENS_21__unordered_map_equalIiS8_SD_SB_Lb1EEENS5_IS8_EEE28__node_insert_unique_performB8ne180100EPNS_11__hash_nodeIS8_PvEE, symObjAddr: 0x77AC, symBinAddr: 0x10000A8C4, symSize: 0x154 }
  - { offsetInCU: 0x1A00C, offset: 0x1A00C, size: 0x8, addend: 0x0, symName: __ZNSt3__116__hash_node_baseIPNS_11__hash_nodeINS_17__hash_value_typeIiNS_3setIiNS_4lessIiEENS_9allocatorIiEEEEEEPvEEE5__ptrB8ne180100Ev, symObjAddr: 0x7900, symBinAddr: 0x10000AA18, symSize: 0x24 }
  - { offsetInCU: 0x1A032, offset: 0x1A032, size: 0x8, addend: 0x0, symName: __ZNSt3__14pairINS_15__hash_iteratorIPNS_11__hash_nodeINS_17__hash_value_typeIiNS_3setIiNS_4lessIiEENS_9allocatorIiEEEEEEPvEEEEbEC1B8ne180100ERKSE_RKb, symObjAddr: 0x7924, symBinAddr: 0x10000AA3C, symSize: 0x3C }
  - { offsetInCU: 0x1A078, offset: 0x1A078, size: 0x8, addend: 0x0, symName: __ZNKSt3__121__unordered_map_equalIiNS_17__hash_value_typeIiNS_3setIiNS_4lessIiEENS_9allocatorIiEEEEEENS_8equal_toIiEENS_4hashIiEELb1EEclB8ne180100ERKS8_SF_, symObjAddr: 0x7960, symBinAddr: 0x10000AA78, symSize: 0x54 }
  - { offsetInCU: 0x1A0BC, offset: 0x1A0BC, size: 0x8, addend: 0x0, symName: __ZNSt3__112__hash_tableINS_17__hash_value_typeIiNS_3setIiNS_4lessIiEENS_9allocatorIiEEEEEENS_22__unordered_map_hasherIiS8_NS_4hashIiEENS_8equal_toIiEELb1EEENS_21__unordered_map_equalIiS8_SD_SB_Lb1EEENS5_IS8_EEE4sizeB8ne180100Ev, symObjAddr: 0x79B4, symBinAddr: 0x10000AACC, symSize: 0x28 }
  - { offsetInCU: 0x1A0E2, offset: 0x1A0E2, size: 0x8, addend: 0x0, symName: __ZNSt3__112__hash_tableINS_17__hash_value_typeIiNS_3setIiNS_4lessIiEENS_9allocatorIiEEEEEENS_22__unordered_map_hasherIiS8_NS_4hashIiEENS_8equal_toIiEELb1EEENS_21__unordered_map_equalIiS8_SD_SB_Lb1EEENS5_IS8_EEE15max_load_factorB8ne180100Ev, symObjAddr: 0x79DC, symBinAddr: 0x10000AAF4, symSize: 0x28 }
  - { offsetInCU: 0x1A108, offset: 0x1A108, size: 0x8, addend: 0x0, symName: __ZNSt3__112__hash_tableINS_17__hash_value_typeIiNS_3setIiNS_4lessIiEENS_9allocatorIiEEEEEENS_22__unordered_map_hasherIiS8_NS_4hashIiEENS_8equal_toIiEELb1EEENS_21__unordered_map_equalIiS8_SD_SB_Lb1EEENS5_IS8_EEE15__rehash_uniqueB8ne180100Em, symObjAddr: 0x7A04, symBinAddr: 0x10000AB1C, symSize: 0x2C }
  - { offsetInCU: 0x1A13D, offset: 0x1A13D, size: 0x8, addend: 0x0, symName: __ZNSt3__117__compressed_pairImNS_22__unordered_map_hasherIiNS_17__hash_value_typeIiNS_3setIiNS_4lessIiEENS_9allocatorIiEEEEEENS_4hashIiEENS_8equal_toIiEELb1EEEE5firstB8ne180100Ev, symObjAddr: 0x7A30, symBinAddr: 0x10000AB48, symSize: 0x24 }
  - { offsetInCU: 0x1A163, offset: 0x1A163, size: 0x8, addend: 0x0, symName: __ZNSt3__117__compressed_pairIfNS_21__unordered_map_equalIiNS_17__hash_value_typeIiNS_3setIiNS_4lessIiEENS_9allocatorIiEEEEEENS_8equal_toIiEENS_4hashIiEELb1EEEE5firstB8ne180100Ev, symObjAddr: 0x7A54, symBinAddr: 0x10000AB6C, symSize: 0x24 }
  - { offsetInCU: 0x1A189, offset: 0x1A189, size: 0x8, addend: 0x0, symName: __ZNSt3__112__hash_tableINS_17__hash_value_typeIiNS_3setIiNS_4lessIiEENS_9allocatorIiEEEEEENS_22__unordered_map_hasherIiS8_NS_4hashIiEENS_8equal_toIiEELb1EEENS_21__unordered_map_equalIiS8_SD_SB_Lb1EEENS5_IS8_EEE8__rehashILb1EEEvm, symObjAddr: 0x7A78, symBinAddr: 0x10000AB90, symSize: 0x1A8 }
  - { offsetInCU: 0x1A1D9, offset: 0x1A1D9, size: 0x8, addend: 0x0, symName: __ZNSt3__112__hash_tableINS_17__hash_value_typeIiNS_3setIiNS_4lessIiEENS_9allocatorIiEEEEEENS_22__unordered_map_hasherIiS8_NS_4hashIiEENS_8equal_toIiEELb1EEENS_21__unordered_map_equalIiS8_SD_SB_Lb1EEENS5_IS8_EEE11__do_rehashILb1EEEvm, symObjAddr: 0x7C20, symBinAddr: 0x10000AD38, symSize: 0x288 }
  - { offsetInCU: 0x1A2BC, offset: 0x1A2BC, size: 0x8, addend: 0x0, symName: __ZNSt3__110unique_ptrIA_PNS_16__hash_node_baseIPNS_11__hash_nodeINS_17__hash_value_typeIiNS_3setIiNS_4lessIiEENS_9allocatorIiEEEEEEPvEEEENS_25__bucket_list_deallocatorINS7_ISF_EEEEE11get_deleterB8ne180100Ev, symObjAddr: 0x7EA8, symBinAddr: 0x10000AFC0, symSize: 0x24 }
  - { offsetInCU: 0x1A2E2, offset: 0x1A2E2, size: 0x8, addend: 0x0, symName: __ZNSt3__110unique_ptrIA_PNS_16__hash_node_baseIPNS_11__hash_nodeINS_17__hash_value_typeIiNS_3setIiNS_4lessIiEENS_9allocatorIiEEEEEEPvEEEENS_25__bucket_list_deallocatorINS7_ISF_EEEEE5resetB8ne180100IPSF_Li0EEEvT_, symObjAddr: 0x7ECC, symBinAddr: 0x10000AFE4, symSize: 0x78 }
  - { offsetInCU: 0x1A335, offset: 0x1A335, size: 0x8, addend: 0x0, symName: __ZNSt3__116allocator_traitsINS_9allocatorIPNS_16__hash_node_baseIPNS_11__hash_nodeINS_17__hash_value_typeIiNS_3setIiNS_4lessIiEENS1_IiEEEEEEPvEEEEEEE8allocateB8ne180100ERSG_m, symObjAddr: 0x7F44, symBinAddr: 0x10000B05C, symSize: 0x2C }
  - { offsetInCU: 0x1A368, offset: 0x1A368, size: 0x8, addend: 0x0, symName: __ZNSt3__117__compressed_pairINS_16__hash_node_baseIPNS_11__hash_nodeINS_17__hash_value_typeIiNS_3setIiNS_4lessIiEENS_9allocatorIiEEEEEEPvEEEENS7_ISC_EEE5firstB8ne180100Ev, symObjAddr: 0x7F70, symBinAddr: 0x10000B088, symSize: 0x24 }
  - { offsetInCU: 0x1A38E, offset: 0x1A38E, size: 0x8, addend: 0x0, symName: __ZNSt3__19allocatorIPNS_16__hash_node_baseIPNS_11__hash_nodeINS_17__hash_value_typeIiNS_3setIiNS_4lessIiEENS0_IiEEEEEEPvEEEEE8allocateB8ne180100Em, symObjAddr: 0x7F94, symBinAddr: 0x10000B0AC, symSize: 0x84 }
  - { offsetInCU: 0x1A3CC, offset: 0x1A3CC, size: 0x8, addend: 0x0, symName: __ZNSt3__116allocator_traitsINS_9allocatorIPNS_16__hash_node_baseIPNS_11__hash_nodeINS_17__hash_value_typeIiNS_3setIiNS_4lessIiEENS1_IiEEEEEEPvEEEEEEE8max_sizeB8ne180100ISG_vEEmRKSG_, symObjAddr: 0x8018, symBinAddr: 0x10000B130, symSize: 0x24 }
  - { offsetInCU: 0x1A3FA, offset: 0x1A3FA, size: 0x8, addend: 0x0, symName: __ZNKSt3__19allocatorIPNS_16__hash_node_baseIPNS_11__hash_nodeINS_17__hash_value_typeIiNS_3setIiNS_4lessIiEENS0_IiEEEEEEPvEEEEE8max_sizeB8ne180100Ev, symObjAddr: 0x803C, symBinAddr: 0x10000B154, symSize: 0x14 }
  - { offsetInCU: 0x1A420, offset: 0x1A420, size: 0x8, addend: 0x0, symName: __ZNSt3__122__compressed_pair_elemINS_16__hash_node_baseIPNS_11__hash_nodeINS_17__hash_value_typeIiNS_3setIiNS_4lessIiEENS_9allocatorIiEEEEEEPvEEEELi0ELb0EE5__getB8ne180100Ev, symObjAddr: 0x8050, symBinAddr: 0x10000B168, symSize: 0x14 }
  - { offsetInCU: 0x1A446, offset: 0x1A446, size: 0x8, addend: 0x0, symName: __ZNSt3__14pairINS_15__hash_iteratorIPNS_11__hash_nodeINS_17__hash_value_typeIiNS_3setIiNS_4lessIiEENS_9allocatorIiEEEEEEPvEEEEbEC2B8ne180100ERKSE_RKb, symObjAddr: 0x8064, symBinAddr: 0x10000B17C, symSize: 0x38 }
  - { offsetInCU: 0x1A48C, offset: 0x1A48C, size: 0x8, addend: 0x0, symName: __ZNSt3__14pairINS_19__hash_map_iteratorINS_15__hash_iteratorIPNS_11__hash_nodeINS_17__hash_value_typeIiNS_3setIiNS_4lessIiEENS_9allocatorIiEEEEEEPvEEEEEEbEC2B8ne180100ISF_bEERKNS0_IT_T0_EE, symObjAddr: 0x809C, symBinAddr: 0x10000B1B4, symSize: 0x50 }
  - { offsetInCU: 0x1A4D6, offset: 0x1A4D6, size: 0x8, addend: 0x0, symName: __ZNSt3__117__compressed_pairIPNS_11__hash_nodeINS_17__hash_value_typeIiNS_3setIiNS_4lessIiEENS_9allocatorIiEEEEEEPvEENS_26__hash_map_node_destructorINS6_ISB_EEEEE5firstB8ne180100Ev, symObjAddr: 0x80EC, symBinAddr: 0x10000B204, symSize: 0x24 }
  - { offsetInCU: 0x1A4FC, offset: 0x1A4FC, size: 0x8, addend: 0x0, symName: __ZNSt3__122__compressed_pair_elemIPNS_11__hash_nodeINS_17__hash_value_typeIiNS_3setIiNS_4lessIiEENS_9allocatorIiEEEEEEPvEELi0ELb0EE5__getB8ne180100Ev, symObjAddr: 0x8110, symBinAddr: 0x10000B228, symSize: 0x14 }
  - { offsetInCU: 0x1A522, offset: 0x1A522, size: 0x8, addend: 0x0, symName: __ZNSt3__110unique_ptrINS_11__hash_nodeINS_17__hash_value_typeIiNS_3setIiNS_4lessIiEENS_9allocatorIiEEEEEEPvEENS_26__hash_map_node_destructorINS6_ISB_EEEEED2B8ne180100Ev, symObjAddr: 0x8124, symBinAddr: 0x10000B23C, symSize: 0x30 }
  - { offsetInCU: 0x1A54C, offset: 0x1A54C, size: 0x8, addend: 0x0, symName: __ZNSt3__110unique_ptrINS_11__hash_nodeINS_17__hash_value_typeIiNS_3setIiNS_4lessIiEENS_9allocatorIiEEEEEEPvEENS_26__hash_map_node_destructorINS6_ISB_EEEEE5resetB8ne180100EPSB_, symObjAddr: 0x8154, symBinAddr: 0x10000B26C, symSize: 0x78 }
  - { offsetInCU: 0x1A590, offset: 0x1A590, size: 0x8, addend: 0x0, symName: __ZNSt3__126__hash_map_node_destructorINS_9allocatorINS_11__hash_nodeINS_17__hash_value_typeIiNS_3setIiNS_4lessIiEENS1_IiEEEEEEPvEEEEEclB8ne180100EPSB_, symObjAddr: 0x81CC, symBinAddr: 0x10000B2E4, symSize: 0xE4 }
  - { offsetInCU: 0x1A5C5, offset: 0x1A5C5, size: 0x8, addend: 0x0, symName: __ZNSt3__116allocator_traitsINS_9allocatorINS_11__hash_nodeINS_17__hash_value_typeIiNS_3setIiNS_4lessIiEENS1_IiEEEEEEPvEEEEE7destroyB8ne180100IS8_vvEEvRSC_PT_, symObjAddr: 0x82B0, symBinAddr: 0x10000B3C8, symSize: 0x28 }
  - { offsetInCU: 0x1A5FF, offset: 0x1A5FF, size: 0x8, addend: 0x0, symName: __ZNSt3__116allocator_traitsINS_9allocatorINS_11__hash_nodeINS_17__hash_value_typeIiNS_3setIiNS_4lessIiEENS1_IiEEEEEEPvEEEEE7destroyB8ne180100IKivvEEvRSC_PT_, symObjAddr: 0x82D8, symBinAddr: 0x10000B3F0, symSize: 0x28 }
  - { offsetInCU: 0x1A639, offset: 0x1A639, size: 0x8, addend: 0x0, symName: __ZNSt3__116allocator_traitsINS_9allocatorINS_11__hash_nodeINS_17__hash_value_typeIiNS_3setIiNS_4lessIiEENS1_IiEEEEEEPvEEEEE10deallocateB8ne180100ERSC_PSB_m, symObjAddr: 0x8300, symBinAddr: 0x10000B418, symSize: 0x34 }
  - { offsetInCU: 0x1A67B, offset: 0x1A67B, size: 0x8, addend: 0x0, symName: __ZNSt3__13setIiNS_4lessIiEENS_9allocatorIiEEED1B8ne180100Ev, symObjAddr: 0x8358, symBinAddr: 0x10000B470, symSize: 0x2C }
  - { offsetInCU: 0x1A6A5, offset: 0x1A6A5, size: 0x8, addend: 0x0, symName: __ZNSt3__13setIiNS_4lessIiEENS_9allocatorIiEEED2B8ne180100Ev, symObjAddr: 0x8384, symBinAddr: 0x10000B49C, symSize: 0x2C }
  - { offsetInCU: 0x1A6CF, offset: 0x1A6CF, size: 0x8, addend: 0x0, symName: __ZNSt3__16__treeIiNS_4lessIiEENS_9allocatorIiEEED1Ev, symObjAddr: 0x83B0, symBinAddr: 0x10000B4C8, symSize: 0x2C }
  - { offsetInCU: 0x1A6FB, offset: 0x1A6FB, size: 0x8, addend: 0x0, symName: __ZNSt3__16__treeIiNS_4lessIiEENS_9allocatorIiEEED2Ev, symObjAddr: 0x83DC, symBinAddr: 0x10000B4F4, symSize: 0x38 }
  - { offsetInCU: 0x1A727, offset: 0x1A727, size: 0x8, addend: 0x0, symName: __ZNSt3__16__treeIiNS_4lessIiEENS_9allocatorIiEEE7destroyEPNS_11__tree_nodeIiPvEE, symObjAddr: 0x8414, symBinAddr: 0x10000B52C, symSize: 0xC0 }
  - { offsetInCU: 0x1A77B, offset: 0x1A77B, size: 0x8, addend: 0x0, symName: __ZNKSt3__16__treeIiNS_4lessIiEENS_9allocatorIiEEE6__rootB8ne180100Ev, symObjAddr: 0x84D4, symBinAddr: 0x10000B5EC, symSize: 0x28 }
  - { offsetInCU: 0x1A7A1, offset: 0x1A7A1, size: 0x8, addend: 0x0, symName: __ZNSt3__16__treeIiNS_4lessIiEENS_9allocatorIiEEE12__node_allocB8ne180100Ev, symObjAddr: 0x84FC, symBinAddr: 0x10000B614, symSize: 0x28 }
  - { offsetInCU: 0x1A7C7, offset: 0x1A7C7, size: 0x8, addend: 0x0, symName: __ZNSt3__116allocator_traitsINS_9allocatorINS_11__tree_nodeIiPvEEEEE7destroyB8ne180100IivvEEvRS5_PT_, symObjAddr: 0x8524, symBinAddr: 0x10000B63C, symSize: 0x28 }
  - { offsetInCU: 0x1A801, offset: 0x1A801, size: 0x8, addend: 0x0, symName: __ZNSt3__122__tree_key_value_typesIiE9__get_ptrB8ne180100ERi, symObjAddr: 0x854C, symBinAddr: 0x10000B664, symSize: 0x14 }
  - { offsetInCU: 0x1A825, offset: 0x1A825, size: 0x8, addend: 0x0, symName: __ZNSt3__116allocator_traitsINS_9allocatorINS_11__tree_nodeIiPvEEEEE10deallocateB8ne180100ERS5_PS4_m, symObjAddr: 0x8560, symBinAddr: 0x10000B678, symSize: 0x34 }
  - { offsetInCU: 0x1A867, offset: 0x1A867, size: 0x8, addend: 0x0, symName: __ZNSt3__117__compressed_pairINS_15__tree_end_nodeIPNS_16__tree_node_baseIPvEEEENS_9allocatorINS_11__tree_nodeIiS3_EEEEE6secondB8ne180100Ev, symObjAddr: 0x8594, symBinAddr: 0x10000B6AC, symSize: 0x24 }
  - { offsetInCU: 0x1A88D, offset: 0x1A88D, size: 0x8, addend: 0x0, symName: __ZNSt3__122__compressed_pair_elemINS_9allocatorINS_11__tree_nodeIiPvEEEELi1ELb1EE5__getB8ne180100Ev, symObjAddr: 0x85B8, symBinAddr: 0x10000B6D0, symSize: 0x14 }
  - { offsetInCU: 0x1A8B3, offset: 0x1A8B3, size: 0x8, addend: 0x0, symName: __ZNSt3__19allocatorINS_11__tree_nodeIiPvEEE10deallocateB8ne180100EPS3_m, symObjAddr: 0x85CC, symBinAddr: 0x10000B6E4, symSize: 0x70 }
  - { offsetInCU: 0x1A8F5, offset: 0x1A8F5, size: 0x8, addend: 0x0, symName: __ZNKSt3__16__treeIiNS_4lessIiEENS_9allocatorIiEEE10__end_nodeB8ne180100Ev, symObjAddr: 0x863C, symBinAddr: 0x10000B754, symSize: 0x2C }
  - { offsetInCU: 0x1A91B, offset: 0x1A91B, size: 0x8, addend: 0x0, symName: __ZNKSt3__117__compressed_pairINS_15__tree_end_nodeIPNS_16__tree_node_baseIPvEEEENS_9allocatorINS_11__tree_nodeIiS3_EEEEE5firstB8ne180100Ev, symObjAddr: 0x8668, symBinAddr: 0x10000B780, symSize: 0x24 }
  - { offsetInCU: 0x1A941, offset: 0x1A941, size: 0x8, addend: 0x0, symName: __ZNKSt3__122__compressed_pair_elemINS_15__tree_end_nodeIPNS_16__tree_node_baseIPvEEEELi0ELb0EE5__getB8ne180100Ev, symObjAddr: 0x868C, symBinAddr: 0x10000B7A4, symSize: 0x14 }
  - { offsetInCU: 0x1A967, offset: 0x1A967, size: 0x8, addend: 0x0, symName: __ZNSt3__19allocatorINS_11__hash_nodeINS_17__hash_value_typeIiNS_3setIiNS_4lessIiEENS0_IiEEEEEEPvEEE10deallocateB8ne180100EPSA_m, symObjAddr: 0x86A0, symBinAddr: 0x10000B7B8, symSize: 0x74 }
  - { offsetInCU: 0x1A9A9, offset: 0x1A9A9, size: 0x8, addend: 0x0, symName: __ZNSt3__16__treeIiNS_4lessIiEENS_9allocatorIiEEE15__insert_uniqueB8ne180100ERKi, symObjAddr: 0x8714, symBinAddr: 0x10000B82C, symSize: 0x50 }
  - { offsetInCU: 0x1A9DE, offset: 0x1A9DE, size: 0x8, addend: 0x0, symName: __ZNSt3__14pairINS_21__tree_const_iteratorIiPNS_11__tree_nodeIiPvEElEEbEC1B8ne180100INS_15__tree_iteratorIiS5_lEEbEERKNS0_IT_T0_EE, symObjAddr: 0x8764, symBinAddr: 0x10000B87C, symSize: 0x34 }
  - { offsetInCU: 0x1AA28, offset: 0x1AA28, size: 0x8, addend: 0x0, symName: __ZNSt3__16__treeIiNS_4lessIiEENS_9allocatorIiEEE25__emplace_unique_key_argsIiJRKiEEENS_4pairINS_15__tree_iteratorIiPNS_11__tree_nodeIiPvEElEEbEERKT_DpOT0_, symObjAddr: 0x8798, symBinAddr: 0x10000B8B0, symSize: 0xF0 }
  - { offsetInCU: 0x1AAD4, offset: 0x1AAD4, size: 0x8, addend: 0x0, symName: __ZNSt3__122__tree_key_value_typesIiE9__get_keyB8ne180100ERKi, symObjAddr: 0x8888, symBinAddr: 0x10000B9A0, symSize: 0x14 }
  - { offsetInCU: 0x1AAF8, offset: 0x1AAF8, size: 0x8, addend: 0x0, symName: __ZNSt3__16__treeIiNS_4lessIiEENS_9allocatorIiEEE12__find_equalIiEERPNS_16__tree_node_baseIPvEERPNS_15__tree_end_nodeISA_EERKT_, symObjAddr: 0x889C, symBinAddr: 0x10000B9B4, symSize: 0x184 }
  - { offsetInCU: 0x1AB65, offset: 0x1AB65, size: 0x8, addend: 0x0, symName: __ZNSt3__16__treeIiNS_4lessIiEENS_9allocatorIiEEE16__construct_nodeIJRKiEEENS_10unique_ptrINS_11__tree_nodeIiPvEENS_22__tree_node_destructorINS3_ISC_EEEEEEDpOT_, symObjAddr: 0x8A20, symBinAddr: 0x10000BB38, symSize: 0x110 }
  - { offsetInCU: 0x1ABC6, offset: 0x1ABC6, size: 0x8, addend: 0x0, symName: __ZNSt3__16__treeIiNS_4lessIiEENS_9allocatorIiEEE16__insert_node_atEPNS_15__tree_end_nodeIPNS_16__tree_node_baseIPvEEEERSA_SA_, symObjAddr: 0x8B30, symBinAddr: 0x10000BC48, symSize: 0xCC }
  - { offsetInCU: 0x1AC1B, offset: 0x1AC1B, size: 0x8, addend: 0x0, symName: __ZNKSt3__110unique_ptrINS_11__tree_nodeIiPvEENS_22__tree_node_destructorINS_9allocatorIS3_EEEEE3getB8ne180100Ev, symObjAddr: 0x8BFC, symBinAddr: 0x10000BD14, symSize: 0x28 }
  - { offsetInCU: 0x1AC41, offset: 0x1AC41, size: 0x8, addend: 0x0, symName: __ZNSt3__110unique_ptrINS_11__tree_nodeIiPvEENS_22__tree_node_destructorINS_9allocatorIS3_EEEEE7releaseB8ne180100Ev, symObjAddr: 0x8C24, symBinAddr: 0x10000BD3C, symSize: 0x44 }
  - { offsetInCU: 0x1AC76, offset: 0x1AC76, size: 0x8, addend: 0x0, symName: __ZNSt3__110unique_ptrINS_11__tree_nodeIiPvEENS_22__tree_node_destructorINS_9allocatorIS3_EEEEED1B8ne180100Ev, symObjAddr: 0x8C68, symBinAddr: 0x10000BD80, symSize: 0x2C }
  - { offsetInCU: 0x1ACA0, offset: 0x1ACA0, size: 0x8, addend: 0x0, symName: __ZNSt3__115__tree_iteratorIiPNS_11__tree_nodeIiPvEElEC1B8ne180100ES4_, symObjAddr: 0x8C94, symBinAddr: 0x10000BDAC, symSize: 0x34 }
  - { offsetInCU: 0x1ACD9, offset: 0x1ACD9, size: 0x8, addend: 0x0, symName: __ZNSt3__14pairINS_15__tree_iteratorIiPNS_11__tree_nodeIiPvEElEEbEC1B8ne180100ERKS6_RKb, symObjAddr: 0x8CC8, symBinAddr: 0x10000BDE0, symSize: 0x3C }
  - { offsetInCU: 0x1AD1F, offset: 0x1AD1F, size: 0x8, addend: 0x0, symName: __ZNKSt3__16__treeIiNS_4lessIiEENS_9allocatorIiEEE10__root_ptrB8ne180100Ev, symObjAddr: 0x8D04, symBinAddr: 0x10000BE1C, symSize: 0x24 }
  - { offsetInCU: 0x1AD45, offset: 0x1AD45, size: 0x8, addend: 0x0, symName: __ZNSt3__16__treeIiNS_4lessIiEENS_9allocatorIiEEE10value_compB8ne180100Ev, symObjAddr: 0x8D28, symBinAddr: 0x10000BE40, symSize: 0x28 }
  - { offsetInCU: 0x1AD6B, offset: 0x1AD6B, size: 0x8, addend: 0x0, symName: __ZNKSt3__14lessIiEclB8ne180100ERKiS3_, symObjAddr: 0x8D50, symBinAddr: 0x10000BE68, symSize: 0x34 }
  - { offsetInCU: 0x1ADAF, offset: 0x1ADAF, size: 0x8, addend: 0x0, symName: __ZNSt3__117__compressed_pairImNS_4lessIiEEE6secondB8ne180100Ev, symObjAddr: 0x8D84, symBinAddr: 0x10000BE9C, symSize: 0x24 }
  - { offsetInCU: 0x1ADD5, offset: 0x1ADD5, size: 0x8, addend: 0x0, symName: __ZNSt3__122__compressed_pair_elemINS_4lessIiEELi1ELb1EE5__getB8ne180100Ev, symObjAddr: 0x8DA8, symBinAddr: 0x10000BEC0, symSize: 0x14 }
  - { offsetInCU: 0x1ADFB, offset: 0x1ADFB, size: 0x8, addend: 0x0, symName: __ZNSt3__116allocator_traitsINS_9allocatorINS_11__tree_nodeIiPvEEEEE8allocateB8ne180100ERS5_m, symObjAddr: 0x8DBC, symBinAddr: 0x10000BED4, symSize: 0x2C }
  - { offsetInCU: 0x1AE2E, offset: 0x1AE2E, size: 0x8, addend: 0x0, symName: __ZNSt3__122__tree_node_destructorINS_9allocatorINS_11__tree_nodeIiPvEEEEEC1B8ne180100ERS5_b, symObjAddr: 0x8DE8, symBinAddr: 0x10000BF00, symSize: 0x48 }
  - { offsetInCU: 0x1AE7B, offset: 0x1AE7B, size: 0x8, addend: 0x0, symName: __ZNSt3__110unique_ptrINS_11__tree_nodeIiPvEENS_22__tree_node_destructorINS_9allocatorIS3_EEEEEC1B8ne180100ILb1EvEEPS3_NS_16__dependent_typeINS_27__unique_ptr_deleter_sfinaeIS7_EEXT_EE20__good_rval_ref_typeE, symObjAddr: 0x8E30, symBinAddr: 0x10000BF48, symSize: 0x3C }
  - { offsetInCU: 0x1AECC, offset: 0x1AECC, size: 0x8, addend: 0x0, symName: __ZNSt3__116allocator_traitsINS_9allocatorINS_11__tree_nodeIiPvEEEEE9constructB8ne180100IiJRKiEvEEvRS5_PT_DpOT0_, symObjAddr: 0x8E6C, symBinAddr: 0x10000BF84, symSize: 0x34 }
  - { offsetInCU: 0x1AF23, offset: 0x1AF23, size: 0x8, addend: 0x0, symName: __ZNKSt3__110unique_ptrINS_11__tree_nodeIiPvEENS_22__tree_node_destructorINS_9allocatorIS3_EEEEEptB8ne180100Ev, symObjAddr: 0x8EA0, symBinAddr: 0x10000BFB8, symSize: 0x28 }
  - { offsetInCU: 0x1AF49, offset: 0x1AF49, size: 0x8, addend: 0x0, symName: __ZNSt3__110unique_ptrINS_11__tree_nodeIiPvEENS_22__tree_node_destructorINS_9allocatorIS3_EEEEE11get_deleterB8ne180100Ev, symObjAddr: 0x8EC8, symBinAddr: 0x10000BFE0, symSize: 0x24 }
  - { offsetInCU: 0x1AF6F, offset: 0x1AF6F, size: 0x8, addend: 0x0, symName: __ZNSt3__19allocatorINS_11__tree_nodeIiPvEEE8allocateB8ne180100Em, symObjAddr: 0x8EEC, symBinAddr: 0x10000C004, symSize: 0x84 }
  - { offsetInCU: 0x1AFAD, offset: 0x1AFAD, size: 0x8, addend: 0x0, symName: __ZNSt3__116allocator_traitsINS_9allocatorINS_11__tree_nodeIiPvEEEEE8max_sizeB8ne180100IS5_vEEmRKS5_, symObjAddr: 0x8F70, symBinAddr: 0x10000C088, symSize: 0x24 }
  - { offsetInCU: 0x1AFDB, offset: 0x1AFDB, size: 0x8, addend: 0x0, symName: __ZNKSt3__19allocatorINS_11__tree_nodeIiPvEEE8max_sizeB8ne180100Ev, symObjAddr: 0x8F94, symBinAddr: 0x10000C0AC, symSize: 0x14 }
  - { offsetInCU: 0x1B001, offset: 0x1B001, size: 0x8, addend: 0x0, symName: __ZNSt3__122__tree_node_destructorINS_9allocatorINS_11__tree_nodeIiPvEEEEEC2B8ne180100ERS5_b, symObjAddr: 0x8FA8, symBinAddr: 0x10000C0C0, symSize: 0x38 }
  - { offsetInCU: 0x1B049, offset: 0x1B049, size: 0x8, addend: 0x0, symName: __ZNSt3__110unique_ptrINS_11__tree_nodeIiPvEENS_22__tree_node_destructorINS_9allocatorIS3_EEEEEC2B8ne180100ILb1EvEEPS3_NS_16__dependent_typeINS_27__unique_ptr_deleter_sfinaeIS7_EEXT_EE20__good_rval_ref_typeE, symObjAddr: 0x8FE0, symBinAddr: 0x10000C0F8, symSize: 0x5C }
  - { offsetInCU: 0x1B09A, offset: 0x1B09A, size: 0x8, addend: 0x0, symName: __ZNSt3__117__compressed_pairIPNS_11__tree_nodeIiPvEENS_22__tree_node_destructorINS_9allocatorIS3_EEEEEC1B8ne180100IRS4_S8_EEOT_OT0_, symObjAddr: 0x903C, symBinAddr: 0x10000C154, symSize: 0x3C }
  - { offsetInCU: 0x1B0F2, offset: 0x1B0F2, size: 0x8, addend: 0x0, symName: __ZNSt3__117__compressed_pairIPNS_11__tree_nodeIiPvEENS_22__tree_node_destructorINS_9allocatorIS3_EEEEEC2B8ne180100IRS4_S8_EEOT_OT0_, symObjAddr: 0x9078, symBinAddr: 0x10000C190, symSize: 0x48 }
  - { offsetInCU: 0x1B14A, offset: 0x1B14A, size: 0x8, addend: 0x0, symName: __ZNSt3__122__compressed_pair_elemIPNS_11__tree_nodeIiPvEELi0ELb0EEC2B8ne180100IRS4_vEEOT_, symObjAddr: 0x90C0, symBinAddr: 0x10000C1D8, symSize: 0x24 }
  - { offsetInCU: 0x1B18C, offset: 0x1B18C, size: 0x8, addend: 0x0, symName: __ZNSt3__122__compressed_pair_elemINS_22__tree_node_destructorINS_9allocatorINS_11__tree_nodeIiPvEEEEEELi1ELb0EEC2B8ne180100IS7_vEEOT_, symObjAddr: 0x90E4, symBinAddr: 0x10000C1FC, symSize: 0x24 }
  - { offsetInCU: 0x1B1CE, offset: 0x1B1CE, size: 0x8, addend: 0x0, symName: __ZNSt3__19allocatorINS_11__tree_nodeIiPvEEE9constructB8ne180100IiJRKiEEEvPT_DpOT0_, symObjAddr: 0x9108, symBinAddr: 0x10000C220, symSize: 0x28 }
  - { offsetInCU: 0x1B224, offset: 0x1B224, size: 0x8, addend: 0x0, symName: __ZNKSt3__117__compressed_pairIPNS_11__tree_nodeIiPvEENS_22__tree_node_destructorINS_9allocatorIS3_EEEEE5firstB8ne180100Ev, symObjAddr: 0x9130, symBinAddr: 0x10000C248, symSize: 0x24 }
  - { offsetInCU: 0x1B24A, offset: 0x1B24A, size: 0x8, addend: 0x0, symName: __ZNKSt3__122__compressed_pair_elemIPNS_11__tree_nodeIiPvEELi0ELb0EE5__getB8ne180100Ev, symObjAddr: 0x9154, symBinAddr: 0x10000C26C, symSize: 0x14 }
  - { offsetInCU: 0x1B270, offset: 0x1B270, size: 0x8, addend: 0x0, symName: __ZNSt3__117__compressed_pairIPNS_11__tree_nodeIiPvEENS_22__tree_node_destructorINS_9allocatorIS3_EEEEE6secondB8ne180100Ev, symObjAddr: 0x9168, symBinAddr: 0x10000C280, symSize: 0x28 }
  - { offsetInCU: 0x1B296, offset: 0x1B296, size: 0x8, addend: 0x0, symName: __ZNSt3__122__compressed_pair_elemINS_22__tree_node_destructorINS_9allocatorINS_11__tree_nodeIiPvEEEEEELi1ELb0EE5__getB8ne180100Ev, symObjAddr: 0x9190, symBinAddr: 0x10000C2A8, symSize: 0x14 }
  - { offsetInCU: 0x1B2BC, offset: 0x1B2BC, size: 0x8, addend: 0x0, symName: __ZNSt3__16__treeIiNS_4lessIiEENS_9allocatorIiEEE4sizeB8ne180100Ev, symObjAddr: 0x94E4, symBinAddr: 0x10000C5FC, symSize: 0x28 }
  - { offsetInCU: 0x1B2E2, offset: 0x1B2E2, size: 0x8, addend: 0x0, symName: __ZNKSt3__116__tree_node_baseIPvE15__parent_unsafeB8ne180100Ev, symObjAddr: 0x950C, symBinAddr: 0x10000C624, symSize: 0x18 }
  - { offsetInCU: 0x1B308, offset: 0x1B308, size: 0x8, addend: 0x0, symName: __ZNSt3__116__tree_node_baseIPvE12__set_parentB8ne180100EPS2_, symObjAddr: 0x9708, symBinAddr: 0x10000C820, symSize: 0x20 }
  - { offsetInCU: 0x1B33D, offset: 0x1B33D, size: 0x8, addend: 0x0, symName: __ZNSt3__117__compressed_pairImNS_4lessIiEEE5firstB8ne180100Ev, symObjAddr: 0x9728, symBinAddr: 0x10000C840, symSize: 0x24 }
  - { offsetInCU: 0x1B363, offset: 0x1B363, size: 0x8, addend: 0x0, symName: __ZNSt3__117__compressed_pairIPNS_11__tree_nodeIiPvEENS_22__tree_node_destructorINS_9allocatorIS3_EEEEE5firstB8ne180100Ev, symObjAddr: 0x974C, symBinAddr: 0x10000C864, symSize: 0x24 }
  - { offsetInCU: 0x1B389, offset: 0x1B389, size: 0x8, addend: 0x0, symName: __ZNSt3__122__compressed_pair_elemIPNS_11__tree_nodeIiPvEELi0ELb0EE5__getB8ne180100Ev, symObjAddr: 0x9770, symBinAddr: 0x10000C888, symSize: 0x14 }
  - { offsetInCU: 0x1B3AF, offset: 0x1B3AF, size: 0x8, addend: 0x0, symName: __ZNSt3__110unique_ptrINS_11__tree_nodeIiPvEENS_22__tree_node_destructorINS_9allocatorIS3_EEEEED2B8ne180100Ev, symObjAddr: 0x9784, symBinAddr: 0x10000C89C, symSize: 0x30 }
  - { offsetInCU: 0x1B3D9, offset: 0x1B3D9, size: 0x8, addend: 0x0, symName: __ZNSt3__110unique_ptrINS_11__tree_nodeIiPvEENS_22__tree_node_destructorINS_9allocatorIS3_EEEEE5resetB8ne180100EPS3_, symObjAddr: 0x97B4, symBinAddr: 0x10000C8CC, symSize: 0x78 }
  - { offsetInCU: 0x1B41D, offset: 0x1B41D, size: 0x8, addend: 0x0, symName: __ZNSt3__122__tree_node_destructorINS_9allocatorINS_11__tree_nodeIiPvEEEEEclB8ne180100EPS4_, symObjAddr: 0x982C, symBinAddr: 0x10000C944, symSize: 0x88 }
  - { offsetInCU: 0x1B452, offset: 0x1B452, size: 0x8, addend: 0x0, symName: __ZNSt3__115__tree_iteratorIiPNS_11__tree_nodeIiPvEElEC2B8ne180100ES4_, symObjAddr: 0x98B4, symBinAddr: 0x10000C9CC, symSize: 0x20 }
  - { offsetInCU: 0x1B48B, offset: 0x1B48B, size: 0x8, addend: 0x0, symName: __ZNSt3__14pairINS_15__tree_iteratorIiPNS_11__tree_nodeIiPvEElEEbEC2B8ne180100ERKS6_RKb, symObjAddr: 0x98D4, symBinAddr: 0x10000C9EC, symSize: 0x38 }
  - { offsetInCU: 0x1B4D1, offset: 0x1B4D1, size: 0x8, addend: 0x0, symName: __ZNSt3__14pairINS_21__tree_const_iteratorIiPNS_11__tree_nodeIiPvEElEEbEC2B8ne180100INS_15__tree_iteratorIiS5_lEEbEERKNS0_IT_T0_EE, symObjAddr: 0x990C, symBinAddr: 0x10000CA24, symSize: 0x50 }
  - { offsetInCU: 0x1B51B, offset: 0x1B51B, size: 0x8, addend: 0x0, symName: __ZNSt3__121__tree_const_iteratorIiPNS_11__tree_nodeIiPvEElEC1B8ne180100ENS_15__tree_iteratorIiS4_lEE, symObjAddr: 0x995C, symBinAddr: 0x10000CA74, symSize: 0x34 }
  - { offsetInCU: 0x1B554, offset: 0x1B554, size: 0x8, addend: 0x0, symName: __ZNSt3__121__tree_const_iteratorIiPNS_11__tree_nodeIiPvEElEC2B8ne180100ENS_15__tree_iteratorIiS4_lEE, symObjAddr: 0x9990, symBinAddr: 0x10000CAA8, symSize: 0x20 }
  - { offsetInCU: 0x1B58D, offset: 0x1B58D, size: 0x8, addend: 0x0, symName: __ZNSt3__113unordered_mapIiiNS_4hashIiEENS_8equal_toIiEENS_9allocatorINS_4pairIKiiEEEEE5eraseB8ne180100ENS_19__hash_map_iteratorINS_15__hash_iteratorIPNS_11__hash_nodeINS_17__hash_value_typeIiiEEPvEEEEEE, symObjAddr: 0x99B0, symBinAddr: 0x10000CAC8, symSize: 0x58 }
  - { offsetInCU: 0x1B5C2, offset: 0x1B5C2, size: 0x8, addend: 0x0, symName: __ZNSt3__113unordered_mapIiiNS_4hashIiEENS_8equal_toIiEENS_9allocatorINS_4pairIKiiEEEEE5eraseB8ne180100ERS7_, symObjAddr: 0x9A08, symBinAddr: 0x10000CB20, symSize: 0x2C }
  - { offsetInCU: 0x1B5F7, offset: 0x1B5F7, size: 0x8, addend: 0x0, symName: __ZNSt3__13setIiNS_4lessIiEENS_9allocatorIiEEE6rbeginB8ne180100Ev, symObjAddr: 0x9AAC, symBinAddr: 0x10000CBC4, symSize: 0x58 }
  - { offsetInCU: 0x1B61D, offset: 0x1B61D, size: 0x8, addend: 0x0, symName: __ZNKSt3__116reverse_iteratorINS_21__tree_const_iteratorIiPNS_11__tree_nodeIiPvEElEEEdeB8ne180100Ev, symObjAddr: 0x9B04, symBinAddr: 0x10000CC1C, symSize: 0x34 }
  - { offsetInCU: 0x1B651, offset: 0x1B651, size: 0x8, addend: 0x0, symName: __ZNSt3__13setIiNS_4lessIiEENS_9allocatorIiEEE5eraseB8ne180100ENS_21__tree_const_iteratorIiPNS_11__tree_nodeIiPvEElEE, symObjAddr: 0x9B74, symBinAddr: 0x10000CC8C, symSize: 0x48 }
  - { offsetInCU: 0x1B686, offset: 0x1B686, size: 0x8, addend: 0x0, symName: __ZNSt3__13setIiNS_4lessIiEENS_9allocatorIiEEE3endB8ne180100Ev, symObjAddr: 0x9C00, symBinAddr: 0x10000CD18, symSize: 0x38 }
  - { offsetInCU: 0x1B6AC, offset: 0x1B6AC, size: 0x8, addend: 0x0, symName: __ZNSt3__112__hash_tableINS_17__hash_value_typeIiiEENS_22__unordered_map_hasherIiS2_NS_4hashIiEENS_8equal_toIiEELb1EEENS_21__unordered_map_equalIiS2_S7_S5_Lb1EEENS_9allocatorIS2_EEE5eraseENS_21__hash_const_iteratorIPNS_11__hash_nodeIS2_PvEEEE, symObjAddr: 0x9C38, symBinAddr: 0x10000CD50, symSize: 0x70 }
  - { offsetInCU: 0x1B701, offset: 0x1B701, size: 0x8, addend: 0x0, symName: __ZNSt3__121__hash_const_iteratorIPNS_11__hash_nodeINS_17__hash_value_typeIiiEEPvEEEC1B8ne180100ERKNS_15__hash_iteratorIS6_EE, symObjAddr: 0x9CA8, symBinAddr: 0x10000CDC0, symSize: 0x34 }
  - { offsetInCU: 0x1B73A, offset: 0x1B73A, size: 0x8, addend: 0x0, symName: __ZNSt3__115__hash_iteratorIPNS_11__hash_nodeINS_17__hash_value_typeIiiEEPvEEEppB8ne180100Ev, symObjAddr: 0x9CDC, symBinAddr: 0x10000CDF4, symSize: 0x20 }
  - { offsetInCU: 0x1B760, offset: 0x1B760, size: 0x8, addend: 0x0, symName: __ZNSt3__112__hash_tableINS_17__hash_value_typeIiiEENS_22__unordered_map_hasherIiS2_NS_4hashIiEENS_8equal_toIiEELb1EEENS_21__unordered_map_equalIiS2_S7_S5_Lb1EEENS_9allocatorIS2_EEE6removeENS_21__hash_const_iteratorIPNS_11__hash_nodeIS2_PvEEEE, symObjAddr: 0x9CFC, symBinAddr: 0x10000CE14, symSize: 0x220 }
  - { offsetInCU: 0x1B7F1, offset: 0x1B7F1, size: 0x8, addend: 0x0, symName: __ZNSt3__110unique_ptrINS_11__hash_nodeINS_17__hash_value_typeIiiEEPvEENS_22__hash_node_destructorINS_9allocatorIS5_EEEEED1B8ne180100Ev, symObjAddr: 0x9F1C, symBinAddr: 0x10000D034, symSize: 0x2C }
  - { offsetInCU: 0x1B81B, offset: 0x1B81B, size: 0x8, addend: 0x0, symName: __ZNSt3__122__hash_node_destructorINS_9allocatorINS_11__hash_nodeINS_17__hash_value_typeIiiEEPvEEEEEC1B8ne180100ERS7_b, symObjAddr: 0x9F48, symBinAddr: 0x10000D060, symSize: 0x48 }
  - { offsetInCU: 0x1B868, offset: 0x1B868, size: 0x8, addend: 0x0, symName: __ZNSt3__110unique_ptrINS_11__hash_nodeINS_17__hash_value_typeIiiEEPvEENS_22__hash_node_destructorINS_9allocatorIS5_EEEEEC1B8ne180100ILb1EvEEPS5_NS_16__dependent_typeINS_27__unique_ptr_deleter_sfinaeIS9_EEXT_EE20__good_rval_ref_typeE, symObjAddr: 0x9F90, symBinAddr: 0x10000D0A8, symSize: 0x3C }
  - { offsetInCU: 0x1B8B9, offset: 0x1B8B9, size: 0x8, addend: 0x0, symName: __ZNSt3__122__hash_node_destructorINS_9allocatorINS_11__hash_nodeINS_17__hash_value_typeIiiEEPvEEEEEC2B8ne180100ERS7_b, symObjAddr: 0x9FCC, symBinAddr: 0x10000D0E4, symSize: 0x38 }
  - { offsetInCU: 0x1B901, offset: 0x1B901, size: 0x8, addend: 0x0, symName: __ZNSt3__110unique_ptrINS_11__hash_nodeINS_17__hash_value_typeIiiEEPvEENS_22__hash_node_destructorINS_9allocatorIS5_EEEEEC2B8ne180100ILb1EvEEPS5_NS_16__dependent_typeINS_27__unique_ptr_deleter_sfinaeIS9_EEXT_EE20__good_rval_ref_typeE, symObjAddr: 0xA004, symBinAddr: 0x10000D11C, symSize: 0x5C }
  - { offsetInCU: 0x1B952, offset: 0x1B952, size: 0x8, addend: 0x0, symName: __ZNSt3__117__compressed_pairIPNS_11__hash_nodeINS_17__hash_value_typeIiiEEPvEENS_22__hash_node_destructorINS_9allocatorIS5_EEEEEC1B8ne180100IRS6_SA_EEOT_OT0_, symObjAddr: 0xA060, symBinAddr: 0x10000D178, symSize: 0x3C }
  - { offsetInCU: 0x1B9AA, offset: 0x1B9AA, size: 0x8, addend: 0x0, symName: __ZNSt3__117__compressed_pairIPNS_11__hash_nodeINS_17__hash_value_typeIiiEEPvEENS_22__hash_node_destructorINS_9allocatorIS5_EEEEEC2B8ne180100IRS6_SA_EEOT_OT0_, symObjAddr: 0xA09C, symBinAddr: 0x10000D1B4, symSize: 0x48 }
  - { offsetInCU: 0x1BA02, offset: 0x1BA02, size: 0x8, addend: 0x0, symName: __ZNSt3__122__compressed_pair_elemINS_22__hash_node_destructorINS_9allocatorINS_11__hash_nodeINS_17__hash_value_typeIiiEEPvEEEEEELi1ELb0EEC2B8ne180100IS9_vEEOT_, symObjAddr: 0xA0E4, symBinAddr: 0x10000D1FC, symSize: 0x24 }
  - { offsetInCU: 0x1BA44, offset: 0x1BA44, size: 0x8, addend: 0x0, symName: __ZNSt3__110unique_ptrINS_11__hash_nodeINS_17__hash_value_typeIiiEEPvEENS_22__hash_node_destructorINS_9allocatorIS5_EEEEED2B8ne180100Ev, symObjAddr: 0xA108, symBinAddr: 0x10000D220, symSize: 0x30 }
  - { offsetInCU: 0x1BA6E, offset: 0x1BA6E, size: 0x8, addend: 0x0, symName: __ZNSt3__110unique_ptrINS_11__hash_nodeINS_17__hash_value_typeIiiEEPvEENS_22__hash_node_destructorINS_9allocatorIS5_EEEEE5resetB8ne180100EPS5_, symObjAddr: 0xA138, symBinAddr: 0x10000D250, symSize: 0x78 }
  - { offsetInCU: 0x1BAB2, offset: 0x1BAB2, size: 0x8, addend: 0x0, symName: __ZNSt3__117__compressed_pairIPNS_11__hash_nodeINS_17__hash_value_typeIiiEEPvEENS_22__hash_node_destructorINS_9allocatorIS5_EEEEE5firstB8ne180100Ev, symObjAddr: 0xA1B0, symBinAddr: 0x10000D2C8, symSize: 0x24 }
  - { offsetInCU: 0x1BAD8, offset: 0x1BAD8, size: 0x8, addend: 0x0, symName: __ZNSt3__117__compressed_pairIPNS_11__hash_nodeINS_17__hash_value_typeIiiEEPvEENS_22__hash_node_destructorINS_9allocatorIS5_EEEEE6secondB8ne180100Ev, symObjAddr: 0xA1D4, symBinAddr: 0x10000D2EC, symSize: 0x28 }
  - { offsetInCU: 0x1BAFE, offset: 0x1BAFE, size: 0x8, addend: 0x0, symName: __ZNSt3__122__hash_node_destructorINS_9allocatorINS_11__hash_nodeINS_17__hash_value_typeIiiEEPvEEEEEclB8ne180100EPS6_, symObjAddr: 0xA1FC, symBinAddr: 0x10000D314, symSize: 0xB8 }
  - { offsetInCU: 0x1BB33, offset: 0x1BB33, size: 0x8, addend: 0x0, symName: __ZNSt3__122__compressed_pair_elemINS_22__hash_node_destructorINS_9allocatorINS_11__hash_nodeINS_17__hash_value_typeIiiEEPvEEEEEELi1ELb0EE5__getB8ne180100Ev, symObjAddr: 0xA2B4, symBinAddr: 0x10000D3CC, symSize: 0x14 }
  - { offsetInCU: 0x1BB59, offset: 0x1BB59, size: 0x8, addend: 0x0, symName: __ZNSt3__121__hash_const_iteratorIPNS_11__hash_nodeINS_17__hash_value_typeIiiEEPvEEEC2B8ne180100ERKNS_15__hash_iteratorIS6_EE, symObjAddr: 0xA2C8, symBinAddr: 0x10000D3E0, symSize: 0x24 }
  - { offsetInCU: 0x1BB92, offset: 0x1BB92, size: 0x8, addend: 0x0, symName: __ZNSt3__112__hash_tableINS_17__hash_value_typeIiiEENS_22__unordered_map_hasherIiS2_NS_4hashIiEENS_8equal_toIiEELb1EEENS_21__unordered_map_equalIiS2_S7_S5_Lb1EEENS_9allocatorIS2_EEE14__erase_uniqueIiEEmRKT_, symObjAddr: 0xA2EC, symBinAddr: 0x10000D404, symSize: 0x98 }
  - { offsetInCU: 0x1BBE1, offset: 0x1BBE1, size: 0x8, addend: 0x0, symName: __ZNSt3__111char_traitsIcE6lengthB8ne180100EPKc, symObjAddr: 0xA578, symBinAddr: 0x10000D690, symSize: 0x48 }
  - { offsetInCU: 0x1BC22, offset: 0x1BC22, size: 0x8, addend: 0x0, symName: __ZNKSt3__113basic_ostreamIcNS_11char_traitsIcEEE6sentrycvbB8ne180100Ev, symObjAddr: 0xA5C0, symBinAddr: 0x10000D6D8, symSize: 0x1C }
  - { offsetInCU: 0x1BC48, offset: 0x1BC48, size: 0x8, addend: 0x0, symName: __ZNSt3__119ostreambuf_iteratorIcNS_11char_traitsIcEEEC1B8ne180100ERNS_13basic_ostreamIcS2_EE, symObjAddr: 0xA824, symBinAddr: 0x10000D93C, symSize: 0x34 }
  - { offsetInCU: 0x1BC80, offset: 0x1BC80, size: 0x8, addend: 0x0, symName: __ZNKSt3__18ios_base5flagsB8ne180100Ev, symObjAddr: 0xA858, symBinAddr: 0x10000D970, symSize: 0x18 }
  - { offsetInCU: 0x1BCA8, offset: 0x1BCA8, size: 0x8, addend: 0x0, symName: __ZNKSt3__19basic_iosIcNS_11char_traitsIcEEE4fillB8ne180100Ev, symObjAddr: 0xA870, symBinAddr: 0x10000D988, symSize: 0x64 }
  - { offsetInCU: 0x1BCD0, offset: 0x1BCD0, size: 0x8, addend: 0x0, symName: __ZNKSt3__119ostreambuf_iteratorIcNS_11char_traitsIcEEE6failedB8ne180100Ev, symObjAddr: 0xA8D4, symBinAddr: 0x10000D9EC, symSize: 0x24 }
  - { offsetInCU: 0x1BCF6, offset: 0x1BCF6, size: 0x8, addend: 0x0, symName: __ZNSt3__19basic_iosIcNS_11char_traitsIcEEE8setstateB8ne180100Ej, symObjAddr: 0xA8F8, symBinAddr: 0x10000DA10, symSize: 0x2C }
  - { offsetInCU: 0x1BD2B, offset: 0x1BD2B, size: 0x8, addend: 0x0, symName: __ZNKSt3__18ios_base5widthB8ne180100Ev, symObjAddr: 0xA924, symBinAddr: 0x10000DA3C, symSize: 0x18 }
  - { offsetInCU: 0x1BD53, offset: 0x1BD53, size: 0x8, addend: 0x0, symName: __ZNSt3__115basic_streambufIcNS_11char_traitsIcEEE5sputnB8ne180100EPKcl, symObjAddr: 0xA93C, symBinAddr: 0x10000DA54, symSize: 0x3C }
  - { offsetInCU: 0x1BD95, offset: 0x1BD95, size: 0x8, addend: 0x0, symName: __ZNSt3__112basic_stringIcNS_11char_traitsIcEENS_9allocatorIcEEEC1B8ne180100Emc, symObjAddr: 0xA978, symBinAddr: 0x10000DA90, symSize: 0x3C }
  - { offsetInCU: 0x1BDDD, offset: 0x1BDDD, size: 0x8, addend: 0x0, symName: __ZNKSt3__112basic_stringIcNS_11char_traitsIcEENS_9allocatorIcEEE4dataB8ne180100Ev, symObjAddr: 0xA9B4, symBinAddr: 0x10000DACC, symSize: 0x28 }
  - { offsetInCU: 0x1BE03, offset: 0x1BE03, size: 0x8, addend: 0x0, symName: __ZNSt3__18ios_base5widthB8ne180100El, symObjAddr: 0xA9DC, symBinAddr: 0x10000DAF4, symSize: 0x2C }
  - { offsetInCU: 0x1BE49, offset: 0x1BE49, size: 0x8, addend: 0x0, symName: __ZNSt3__112basic_stringIcNS_11char_traitsIcEENS_9allocatorIcEEEC2B8ne180100Emc, symObjAddr: 0xAA08, symBinAddr: 0x10000DB20, symSize: 0x4C }
  - { offsetInCU: 0x1BE91, offset: 0x1BE91, size: 0x8, addend: 0x0, symName: __ZNSt3__117__compressed_pairINS_12basic_stringIcNS_11char_traitsIcEENS_9allocatorIcEEE5__repES5_EC1B8ne180100INS_18__default_init_tagESA_EEOT_OT0_, symObjAddr: 0xAA54, symBinAddr: 0x10000DB6C, symSize: 0x3C }
  - { offsetInCU: 0x1BEE9, offset: 0x1BEE9, size: 0x8, addend: 0x0, symName: __ZNSt3__117__compressed_pairINS_12basic_stringIcNS_11char_traitsIcEENS_9allocatorIcEEE5__repES5_EC2B8ne180100INS_18__default_init_tagESA_EEOT_OT0_, symObjAddr: 0xAA90, symBinAddr: 0x10000DBA8, symSize: 0x3C }
  - { offsetInCU: 0x1BF41, offset: 0x1BF41, size: 0x8, addend: 0x0, symName: __ZNSt3__122__compressed_pair_elemINS_12basic_stringIcNS_11char_traitsIcEENS_9allocatorIcEEE5__repELi0ELb0EEC2B8ne180100ENS_18__default_init_tagE, symObjAddr: 0xAACC, symBinAddr: 0x10000DBE4, symSize: 0x14 }
  - { offsetInCU: 0x1BF75, offset: 0x1BF75, size: 0x8, addend: 0x0, symName: __ZNSt3__122__compressed_pair_elemINS_9allocatorIcEELi1ELb1EEC2B8ne180100ENS_18__default_init_tagE, symObjAddr: 0xAAE0, symBinAddr: 0x10000DBF8, symSize: 0x2C }
  - { offsetInCU: 0x1BFA9, offset: 0x1BFA9, size: 0x8, addend: 0x0, symName: __ZNSt3__19allocatorIcEC2B8ne180100Ev, symObjAddr: 0xAB0C, symBinAddr: 0x10000DC24, symSize: 0x2C }
  - { offsetInCU: 0x1BFD3, offset: 0x1BFD3, size: 0x8, addend: 0x0, symName: __ZNSt3__116__non_trivial_ifILb1ENS_9allocatorIcEEEC2B8ne180100Ev, symObjAddr: 0xAB38, symBinAddr: 0x10000DC50, symSize: 0x14 }
  - { offsetInCU: 0x1BFFD, offset: 0x1BFFD, size: 0x8, addend: 0x0, symName: __ZNKSt3__112basic_stringIcNS_11char_traitsIcEENS_9allocatorIcEEE13__get_pointerB8ne180100Ev, symObjAddr: 0xAB60, symBinAddr: 0x10000DC78, symSize: 0x54 }
  - { offsetInCU: 0x1C023, offset: 0x1C023, size: 0x8, addend: 0x0, symName: __ZNKSt3__112basic_stringIcNS_11char_traitsIcEENS_9allocatorIcEEE9__is_longB8ne180100Ev, symObjAddr: 0xABB4, symBinAddr: 0x10000DCCC, symSize: 0x94 }
  - { offsetInCU: 0x1C049, offset: 0x1C049, size: 0x8, addend: 0x0, symName: __ZNKSt3__112basic_stringIcNS_11char_traitsIcEENS_9allocatorIcEEE18__get_long_pointerB8ne180100Ev, symObjAddr: 0xAC48, symBinAddr: 0x10000DD60, symSize: 0x28 }
  - { offsetInCU: 0x1C06F, offset: 0x1C06F, size: 0x8, addend: 0x0, symName: __ZNKSt3__112basic_stringIcNS_11char_traitsIcEENS_9allocatorIcEEE19__get_short_pointerB8ne180100Ev, symObjAddr: 0xAC70, symBinAddr: 0x10000DD88, symSize: 0x28 }
  - { offsetInCU: 0x1C095, offset: 0x1C095, size: 0x8, addend: 0x0, symName: __ZNKSt3__117__compressed_pairINS_12basic_stringIcNS_11char_traitsIcEENS_9allocatorIcEEE5__repES5_E5firstB8ne180100Ev, symObjAddr: 0xAC98, symBinAddr: 0x10000DDB0, symSize: 0x24 }
  - { offsetInCU: 0x1C0BB, offset: 0x1C0BB, size: 0x8, addend: 0x0, symName: __ZNKSt3__122__compressed_pair_elemINS_12basic_stringIcNS_11char_traitsIcEENS_9allocatorIcEEE5__repELi0ELb0EE5__getB8ne180100Ev, symObjAddr: 0xACBC, symBinAddr: 0x10000DDD4, symSize: 0x14 }
  - { offsetInCU: 0x1C0E1, offset: 0x1C0E1, size: 0x8, addend: 0x0, symName: __ZNSt3__114pointer_traitsIPKcE10pointer_toB8ne180100ERS1_, symObjAddr: 0xACD0, symBinAddr: 0x10000DDE8, symSize: 0x14 }
  - { offsetInCU: 0x1C104, offset: 0x1C104, size: 0x8, addend: 0x0, symName: __ZNSt3__119ostreambuf_iteratorIcNS_11char_traitsIcEEEC2B8ne180100ERNS_13basic_ostreamIcS2_EE, symObjAddr: 0xACE4, symBinAddr: 0x10000DDFC, symSize: 0x68 }
  - { offsetInCU: 0x1C13C, offset: 0x1C13C, size: 0x8, addend: 0x0, symName: __ZNKSt3__19basic_iosIcNS_11char_traitsIcEEE5rdbufB8ne180100Ev, symObjAddr: 0xAD4C, symBinAddr: 0x10000DE64, symSize: 0x24 }
  - { offsetInCU: 0x1C164, offset: 0x1C164, size: 0x8, addend: 0x0, symName: __ZNKSt3__18ios_base5rdbufB8ne180100Ev, symObjAddr: 0xAD70, symBinAddr: 0x10000DE88, symSize: 0x18 }
  - { offsetInCU: 0x1C18A, offset: 0x1C18A, size: 0x8, addend: 0x0, symName: __ZNSt3__111char_traitsIcE11eq_int_typeB8ne180100Eii, symObjAddr: 0xAD88, symBinAddr: 0x10000DEA0, symSize: 0x28 }
  - { offsetInCU: 0x1C1BD, offset: 0x1C1BD, size: 0x8, addend: 0x0, symName: __ZNSt3__111char_traitsIcE3eofB8ne180100Ev, symObjAddr: 0xADB0, symBinAddr: 0x10000DEC8, symSize: 0x8 }
  - { offsetInCU: 0x1C1D1, offset: 0x1C1D1, size: 0x8, addend: 0x0, symName: __ZNKSt3__19basic_iosIcNS_11char_traitsIcEEE5widenB8ne180100Ec, symObjAddr: 0xADB8, symBinAddr: 0x10000DED0, symSize: 0x8C }
  - { offsetInCU: 0x1C23F, offset: 0x1C23F, size: 0x8, addend: 0x0, symName: __ZNKSt3__15ctypeIcE5widenB8ne180100Ec, symObjAddr: 0xAE70, symBinAddr: 0x10000DF88, symSize: 0x38 }
  - { offsetInCU: 0x1C274, offset: 0x1C274, size: 0x8, addend: 0x0, symName: __ZNSt3__18ios_base8setstateB8ne180100Ej, symObjAddr: 0xAEA8, symBinAddr: 0x10000DFC0, symSize: 0x34 }
  - { offsetInCU: 0x1C2AB, offset: 0x1C2AB, size: 0x8, addend: 0x0, symName: __ZNSt3__116reverse_iteratorINS_21__tree_const_iteratorIiPNS_11__tree_nodeIiPvEElEEEC1B8ne180100ES6_, symObjAddr: 0xAF00, symBinAddr: 0x10000E018, symSize: 0x34 }
  - { offsetInCU: 0x1C2E3, offset: 0x1C2E3, size: 0x8, addend: 0x0, symName: __ZNSt3__116reverse_iteratorINS_21__tree_const_iteratorIiPNS_11__tree_nodeIiPvEElEEEC2B8ne180100ES6_, symObjAddr: 0xAF34, symBinAddr: 0x10000E04C, symSize: 0x28 }
  - { offsetInCU: 0x1C31B, offset: 0x1C31B, size: 0x8, addend: 0x0, symName: __ZNSt3__121__tree_const_iteratorIiPNS_11__tree_nodeIiPvEElEmmB8ne180100Ev, symObjAddr: 0xAF5C, symBinAddr: 0x10000E074, symSize: 0x38 }
  - { offsetInCU: 0x1C341, offset: 0x1C341, size: 0x8, addend: 0x0, symName: __ZNKSt3__121__tree_const_iteratorIiPNS_11__tree_nodeIiPvEElEdeB8ne180100Ev, symObjAddr: 0xAF94, symBinAddr: 0x10000E0AC, symSize: 0x28 }
  - { offsetInCU: 0x1C367, offset: 0x1C367, size: 0x8, addend: 0x0, symName: __ZNKSt3__121__tree_const_iteratorIiPNS_11__tree_nodeIiPvEElE8__get_npB8ne180100Ev, symObjAddr: 0xB084, symBinAddr: 0x10000E19C, symSize: 0x18 }
  - { offsetInCU: 0x1C38D, offset: 0x1C38D, size: 0x8, addend: 0x0, symName: __ZNSt3__16__treeIiNS_4lessIiEENS_9allocatorIiEEE5eraseENS_21__tree_const_iteratorIiPNS_11__tree_nodeIiPvEElEE, symObjAddr: 0xB09C, symBinAddr: 0x10000E1B4, symSize: 0x98 }
  - { offsetInCU: 0x1C3F1, offset: 0x1C3F1, size: 0x8, addend: 0x0, symName: __ZNSt3__16__treeIiNS_4lessIiEENS_9allocatorIiEEE21__remove_node_pointerEPNS_11__tree_nodeIiPvEE, symObjAddr: 0xB134, symBinAddr: 0x10000E24C, symSize: 0xC8 }
  - { offsetInCU: 0x1C437, offset: 0x1C437, size: 0x8, addend: 0x0, symName: __ZNSt3__115__tree_iteratorIiPNS_11__tree_nodeIiPvEElEppB8ne180100Ev, symObjAddr: 0xB1FC, symBinAddr: 0x10000E314, symSize: 0x38 }
  - { offsetInCU: 0x1C45D, offset: 0x1C45D, size: 0x8, addend: 0x0, symName: __ZNSt3__121__tree_const_iteratorIiPNS_11__tree_nodeIiPvEElEppB8ne180100Ev, symObjAddr: 0xBB44, symBinAddr: 0x10000EC5C, symSize: 0x38 }
  - { offsetInCU: 0x1C483, offset: 0x1C483, size: 0x8, addend: 0x0, symName: __ZNSt3__16__treeIiNS_4lessIiEENS_9allocatorIiEEE3endB8ne180100Ev, symObjAddr: 0xBB7C, symBinAddr: 0x10000EC94, symSize: 0x34 }
  - { offsetInCU: 0x1C4A9, offset: 0x1C4A9, size: 0x8, addend: 0x0, symName: __ZNSt3__115__tree_iteratorIiPNS_11__tree_nodeIiPvEElEC1B8ne180100EPNS_15__tree_end_nodeIPNS_16__tree_node_baseIS2_EEEE, symObjAddr: 0xBBB0, symBinAddr: 0x10000ECC8, symSize: 0x34 }
  - { offsetInCU: 0x1C4E2, offset: 0x1C4E2, size: 0x8, addend: 0x0, symName: __ZNSt3__115__tree_iteratorIiPNS_11__tree_nodeIiPvEElEC2B8ne180100EPNS_15__tree_end_nodeIPNS_16__tree_node_baseIS2_EEEE, symObjAddr: 0xBBE4, symBinAddr: 0x10000ECFC, symSize: 0x20 }
  - { offsetInCU: 0x1C51B, offset: 0x1C51B, size: 0x8, addend: 0x0, symName: __ZN20RandomizedCollectionD2Ev, symObjAddr: 0xBC04, symBinAddr: 0x10000ED1C, symSize: 0x98 }
  - { offsetInCU: 0x1C547, offset: 0x1C547, size: 0x8, addend: 0x0, symName: __ZNSt3__113unordered_mapIiNS_3setIiNS_4lessIiEENS_9allocatorIiEEEENS_4hashIiEENS_8equal_toIiEENS4_INS_4pairIKiS6_EEEEED1B8ne180100Ev, symObjAddr: 0xBC9C, symBinAddr: 0x10000EDB4, symSize: 0x2C }
  - { offsetInCU: 0x1C571, offset: 0x1C571, size: 0x8, addend: 0x0, symName: __ZNSt3__113unordered_mapIiNS_3setIiNS_4lessIiEENS_9allocatorIiEEEENS_4hashIiEENS_8equal_toIiEENS4_INS_4pairIKiS6_EEEEED2B8ne180100Ev, symObjAddr: 0xBCC8, symBinAddr: 0x10000EDE0, symSize: 0x2C }
  - { offsetInCU: 0x1C59B, offset: 0x1C59B, size: 0x8, addend: 0x0, symName: __ZNSt3__112__hash_tableINS_17__hash_value_typeIiNS_3setIiNS_4lessIiEENS_9allocatorIiEEEEEENS_22__unordered_map_hasherIiS8_NS_4hashIiEENS_8equal_toIiEELb1EEENS_21__unordered_map_equalIiS8_SD_SB_Lb1EEENS5_IS8_EEED1Ev, symObjAddr: 0xBCF4, symBinAddr: 0x10000EE0C, symSize: 0x2C }
  - { offsetInCU: 0x1C5C7, offset: 0x1C5C7, size: 0x8, addend: 0x0, symName: __ZNSt3__112__hash_tableINS_17__hash_value_typeIiNS_3setIiNS_4lessIiEENS_9allocatorIiEEEEEENS_22__unordered_map_hasherIiS8_NS_4hashIiEENS_8equal_toIiEELb1EEENS_21__unordered_map_equalIiS8_SD_SB_Lb1EEENS5_IS8_EEED2Ev, symObjAddr: 0xBD20, symBinAddr: 0x10000EE38, symSize: 0x48 }
  - { offsetInCU: 0x1C5F3, offset: 0x1C5F3, size: 0x8, addend: 0x0, symName: __ZNSt3__112__hash_tableINS_17__hash_value_typeIiNS_3setIiNS_4lessIiEENS_9allocatorIiEEEEEENS_22__unordered_map_hasherIiS8_NS_4hashIiEENS_8equal_toIiEELb1EEENS_21__unordered_map_equalIiS8_SD_SB_Lb1EEENS5_IS8_EEE17__deallocate_nodeEPNS_16__hash_node_baseIPNS_11__hash_nodeIS8_PvEEEE, symObjAddr: 0xBD68, symBinAddr: 0x10000EE80, symSize: 0xC8 }
  - { offsetInCU: 0x1C65D, offset: 0x1C65D, size: 0x8, addend: 0x0, symName: __ZNSt3__116allocator_traitsINS_9allocatorINS_11__hash_nodeINS_17__hash_value_typeIiNS_3setIiNS_4lessIiEENS1_IiEEEEEEPvEEEEE7destroyB8ne180100INS_4pairIKiS8_EEvvEEvRSC_PT_, symObjAddr: 0xBE30, symBinAddr: 0x10000EF48, symSize: 0x28 }
  - { offsetInCU: 0x1C697, offset: 0x1C697, size: 0x8, addend: 0x0, symName: __ZNSt3__122__hash_key_value_typesINS_17__hash_value_typeIiNS_3setIiNS_4lessIiEENS_9allocatorIiEEEEEEE9__get_ptrB8ne180100ERS8_, symObjAddr: 0xBE58, symBinAddr: 0x10000EF70, symSize: 0x24 }
  - { offsetInCU: 0x1C6BA, offset: 0x1C6BA, size: 0x8, addend: 0x0, symName: __ZNSt3__14pairIKiNS_3setIiNS_4lessIiEENS_9allocatorIiEEEEED1Ev, symObjAddr: 0xBEC4, symBinAddr: 0x10000EFDC, symSize: 0x2C }
  - { offsetInCU: 0x1C6E6, offset: 0x1C6E6, size: 0x8, addend: 0x0, symName: __ZNSt3__14pairIKiNS_3setIiNS_4lessIiEENS_9allocatorIiEEEEED2Ev, symObjAddr: 0xBEF0, symBinAddr: 0x10000F008, symSize: 0x30 }
  - { offsetInCU: 0x1C712, offset: 0x1C712, size: 0x8, addend: 0x0, symName: __ZNSt3__111__hash_nodeINS_17__hash_value_typeIiNS_3setIiNS_4lessIiEENS_9allocatorIiEEEEEEPvED1B8ne180100Ev, symObjAddr: 0xBF20, symBinAddr: 0x10000F038, symSize: 0x2C }
  - { offsetInCU: 0x1C73C, offset: 0x1C73C, size: 0x8, addend: 0x0, symName: __ZNSt3__111__hash_nodeINS_17__hash_value_typeIiNS_3setIiNS_4lessIiEENS_9allocatorIiEEEEEEPvED2B8ne180100Ev, symObjAddr: 0xBF4C, symBinAddr: 0x10000F064, symSize: 0x14 }
...
